libdraco.so.1a libdraco1a #MINVER#
* Build-Depends-Package: libdraco-dev
 (optional=libstdc++|regex)"^_Z(Z|GTt|GVZ?|TI|TS|TT|TV|Thn?\d+_|Tvn?\d+_n?\d+_)?N?r?V?K?[RO]?S[abdiost]" 0~unused
 (optional=libstdc++|regex)"^_ZN9__gnu_cxx" 0~unused
 _ZN5draco10DataBuffer17WriteDataToStreamERSo@Base 1.4.3+dfsg
 (arch-bits=32)_ZN5draco10DataBuffer6ResizeEx@Base 1.4.3+dfsg
 (arch-bits=64)_ZN5draco10DataBuffer6ResizeEl@Base 1.4.3+dfsg
 (arch-bits=32)_ZN5draco10DataBuffer6UpdateEPKvx@Base 1.4.3+dfsg
 (arch-bits=64)_ZN5draco10DataBuffer6UpdateEPKvl@Base 1.4.3+dfsg
 (arch-bits=32)_ZN5draco10DataBuffer6UpdateEPKvxx@Base 1.4.3+dfsg
 (arch-bits=64)_ZN5draco10DataBuffer6UpdateEPKvll@Base 1.4.3+dfsg
 _ZN5draco10DataBufferC1Ev@Base 1.4.3+dfsg
 _ZN5draco10DataBufferC2Ev@Base 1.4.3+dfsg
 _ZN5draco10DracoTimer4StopEv@Base 1.4.3+dfsg
 _ZN5draco10DracoTimer5StartEv@Base 1.4.3+dfsg
 _ZN5draco10DracoTimer7GetInMsEv@Base 1.4.3+dfsg
 _ZN5draco10EntryValueC1ERKNSt7__cxx1112basic_stringIcSt11char_traitsIcESaIcEEE@Base 1.4.3+dfsg
 _ZN5draco10EntryValueC1ERKS0_@Base 1.4.3+dfsg
 _ZN5draco10EntryValueC2ERKNSt7__cxx1112basic_stringIcSt11char_traitsIcESaIcEEE@Base 1.4.3+dfsg
 _ZN5draco10EntryValueC2ERKS0_@Base 1.4.3+dfsg
 _ZN5draco10ObjDecoder11ParseNormalEPNS_6StatusE@Base 1.4.3+dfsg
 _ZN5draco10ObjDecoder11ParseObjectEPNS_6StatusE@Base 1.4.3+dfsg
 _ZN5draco10ObjDecoder13ParseMaterialEPNS_6StatusE@Base 1.4.3+dfsg
 _ZN5draco10ObjDecoder13ParseTexCoordEPNS_6StatusE@Base 1.4.3+dfsg
 _ZN5draco10ObjDecoder13ResetCountersEv@Base 1.4.3+dfsg
 _ZN5draco10ObjDecoder14DecodeFromFileERKNSt7__cxx1112basic_stringIcSt11char_traitsIcESaIcEEEPNS_10PointCloudE@Base 1.4.3+dfsg
 _ZN5draco10ObjDecoder14DecodeFromFileERKNSt7__cxx1112basic_stringIcSt11char_traitsIcESaIcEEEPNS_4MeshE@Base 1.4.3+dfsg
 _ZN5draco10ObjDecoder14DecodeFromFileERKNSt7__cxx1112basic_stringIcSt11char_traitsIcESaIcEEEPNS_4MeshEPSt6vectorIS6_SaIS6_EE@Base 1.4.3+dfsg
 _ZN5draco10ObjDecoder14DecodeInternalEv@Base 1.4.3+dfsg
 _ZN5draco10ObjDecoder15ParseDefinitionEPNS_6StatusE@Base 1.4.3+dfsg
 _ZN5draco10ObjDecoder16DecodeFromBufferEPNS_13DecoderBufferEPNS_10PointCloudE@Base 1.4.3+dfsg
 _ZN5draco10ObjDecoder16DecodeFromBufferEPNS_13DecoderBufferEPNS_4MeshE@Base 1.4.3+dfsg
 _ZN5draco10ObjDecoder16ParseMaterialLibEPNS_6StatusE@Base 1.4.3+dfsg
 _ZN5draco10ObjDecoder17ParseMaterialFileERKNSt7__cxx1112basic_stringIcSt11char_traitsIcESaIcEEEPNS_6StatusE@Base 1.4.3+dfsg
 (arch-bits=32)_ZN5draco10ObjDecoder18ParseVertexIndicesEPSt5arrayIiLj3EE@Base 1.4.3+dfsg
 (arch-bits=64)_ZN5draco10ObjDecoder18ParseVertexIndicesEPSt5arrayIiLm3EE@Base 1.4.3+dfsg
 _ZN5draco10ObjDecoder19ParseVertexPositionEPNS_6StatusE@Base 1.4.3+dfsg
 (arch-bits=32)_ZN5draco10ObjDecoder23MapPointToVertexIndicesENS_9IndexTypeIjNS_20PointIndex_tag_type_EEERKSt5arrayIiLj3EE@Base 1.4.3+dfsg
 (arch-bits=64)_ZN5draco10ObjDecoder23MapPointToVertexIndicesENS_9IndexTypeIjNS_20PointIndex_tag_type_EEERKSt5arrayIiLm3EE@Base 1.4.3+dfsg
 _ZN5draco10ObjDecoder27ParseMaterialFileDefinitionEPNS_6StatusE@Base 1.4.3+dfsg
 _ZN5draco10ObjDecoder9ParseFaceEPNS_6StatusE@Base 1.4.3+dfsg
 _ZN5draco10ObjDecoderC1Ev@Base 1.4.3+dfsg
 _ZN5draco10ObjDecoderC2Ev@Base 1.4.3+dfsg
 _ZN5draco10ObjEncoder11EncodeFacesEv@Base 1.4.3+dfsg
 _ZN5draco10ObjEncoder11EncodeFloatEf@Base 1.4.3+dfsg
 _ZN5draco10ObjEncoder12EncodeToFileERKNS_10PointCloudERKNSt7__cxx1112basic_stringIcSt11char_traitsIcESaIcEEE@Base 1.4.3+dfsg
 _ZN5draco10ObjEncoder12EncodeToFileERKNS_4MeshERKNSt7__cxx1112basic_stringIcSt11char_traitsIcESaIcEEE@Base 1.4.3+dfsg
 _ZN5draco10ObjEncoder13EncodeNormalsEv@Base 1.4.3+dfsg
 _ZN5draco10ObjEncoder13GetSubObjectsEv@Base 1.4.3+dfsg
 _ZN5draco10ObjEncoder14EncodeInternalEv@Base 1.4.3+dfsg
 _ZN5draco10ObjEncoder14EncodeMaterialENS_9IndexTypeIjNS_19FaceIndex_tag_type_EEE@Base 1.4.3+dfsg
 _ZN5draco10ObjEncoder14EncodeToBufferERKNS_10PointCloudEPNS_13EncoderBufferE@Base 1.4.3+dfsg
 _ZN5draco10ObjEncoder14EncodeToBufferERKNS_4MeshEPNS_13EncoderBufferE@Base 1.4.3+dfsg
 _ZN5draco10ObjEncoder14ExitAndCleanupEb@Base 1.4.3+dfsg
 _ZN5draco10ObjEncoder15EncodeFloatListEPfi@Base 1.4.3+dfsg
 _ZN5draco10ObjEncoder15EncodePositionsEv@Base 1.4.3+dfsg
 _ZN5draco10ObjEncoder15EncodeSubObjectENS_9IndexTypeIjNS_19FaceIndex_tag_type_EEE@Base 1.4.3+dfsg
 _ZN5draco10ObjEncoder16EncodeFaceCornerENS_9IndexTypeIjNS_19FaceIndex_tag_type_EEEi@Base 1.4.3+dfsg
 _ZN5draco10ObjEncoder22EncodeMaterialFileNameEv@Base 1.4.3+dfsg
 _ZN5draco10ObjEncoder24EncodeTextureCoordinatesEv@Base 1.4.3+dfsg
 _ZN5draco10ObjEncoder9EncodeIntEi@Base 1.4.3+dfsg
 _ZN5draco10ObjEncoderC1Ev@Base 1.4.3+dfsg
 _ZN5draco10ObjEncoderC2Ev@Base 1.4.3+dfsg
 _ZN5draco10PlyDecoder14DecodeFaceDataEPKNS_10PlyElementE@Base 1.4.3+dfsg
 _ZN5draco10PlyDecoder14DecodeFromFileERKNSt7__cxx1112basic_stringIcSt11char_traitsIcESaIcEEEPNS_10PointCloudE@Base 1.4.3+dfsg
 _ZN5draco10PlyDecoder14DecodeFromFileERKNSt7__cxx1112basic_stringIcSt11char_traitsIcESaIcEEEPNS_4MeshE@Base 1.4.3+dfsg
 _ZN5draco10PlyDecoder14DecodeInternalEv@Base 1.4.3+dfsg
 _ZN5draco10PlyDecoder16DecodeFromBufferEPNS_13DecoderBufferEPNS_10PointCloudE@Base 1.4.3+dfsg
 _ZN5draco10PlyDecoder16DecodeFromBufferEPNS_13DecoderBufferEPNS_4MeshE@Base 1.4.3+dfsg
 _ZN5draco10PlyDecoder16DecodeVertexDataEPKNS_10PlyElementE@Base 1.4.3+dfsg
 _ZN5draco10PlyDecoderC1Ev@Base 1.4.3+dfsg
 _ZN5draco10PlyDecoderC2Ev@Base 1.4.3+dfsg
 (arch-bits=32)_ZN5draco10PlyElementC1ERKNSt7__cxx1112basic_stringIcSt11char_traitsIcESaIcEEEx@Base 1.4.3+dfsg
 (arch-bits=64)_ZN5draco10PlyElementC1ERKNSt7__cxx1112basic_stringIcSt11char_traitsIcESaIcEEEl@Base 1.4.3+dfsg
 (arch-bits=32)_ZN5draco10PlyElementC2ERKNSt7__cxx1112basic_stringIcSt11char_traitsIcESaIcEEEx@Base 1.4.3+dfsg
 (arch-bits=64)_ZN5draco10PlyElementC2ERKNSt7__cxx1112basic_stringIcSt11char_traitsIcESaIcEEEl@Base 1.4.3+dfsg
 _ZN5draco10PlyEncoder12EncodeToFileERKNS_10PointCloudERKNSt7__cxx1112basic_stringIcSt11char_traitsIcESaIcEEE@Base 1.4.3+dfsg
 _ZN5draco10PlyEncoder12EncodeToFileERKNS_4MeshERKNSt7__cxx1112basic_stringIcSt11char_traitsIcESaIcEEE@Base 1.4.3+dfsg
 _ZN5draco10PlyEncoder14EncodeInternalEv@Base 1.4.3+dfsg
 _ZN5draco10PlyEncoder14EncodeToBufferERKNS_10PointCloudEPNS_13EncoderBufferE@Base 1.4.3+dfsg
 _ZN5draco10PlyEncoder14EncodeToBufferERKNS_4MeshEPNS_13EncoderBufferE@Base 1.4.3+dfsg
 _ZN5draco10PlyEncoder14ExitAndCleanupEb@Base 1.4.3+dfsg
 _ZN5draco10PlyEncoder20GetAttributeDataTypeEi@Base 1.4.3+dfsg
 _ZN5draco10PlyEncoderC1Ev@Base 1.4.3+dfsg
 _ZN5draco10PlyEncoderC2Ev@Base 1.4.3+dfsg
 _ZN5draco10PointCloud12AddAttributeERKNS_17GeometryAttributeEbj@Base 1.4.3+dfsg
 _ZN5draco10PointCloud12AddAttributeESt10unique_ptrINS_14PointAttributeESt14default_deleteIS2_EE@Base 1.4.3+dfsg
 _ZN5draco10PointCloud12SetAttributeEiSt10unique_ptrINS_14PointAttributeESt14default_deleteIS2_EE@Base 1.4.3+dfsg
 _ZN5draco10PointCloud15DeleteAttributeEi@Base 1.4.3+dfsg
 _ZN5draco10PointCloudC1Ev@Base 1.4.3+dfsg
 _ZN5draco10PointCloudC2Ev@Base 1.4.3+dfsg
 _ZN5draco11BoundingBoxC1ERKNS_7VectorDIfLi3EEES4_@Base 1.4.3+dfsg
 _ZN5draco11BoundingBoxC1Ev@Base 1.4.3+dfsg
 _ZN5draco11BoundingBoxC2ERKNS_7VectorDIfLi3EEES4_@Base 1.4.3+dfsg
 _ZN5draco11BoundingBoxC2Ev@Base 1.4.3+dfsg
 _ZN5draco11CornerTable20ComputeVertexCornersEi@Base 1.4.3+dfsg
 _ZN5draco11CornerTable21BreakNonManifoldEdgesEv@Base 1.4.3+dfsg
 _ZN5draco11CornerTable21UpdateFaceToVertexMapENS_9IndexTypeIjNS_21VertexIndex_tag_type_EEE@Base 1.4.3+dfsg
 _ZN5draco11CornerTable22ComputeOppositeCornersEPi@Base 1.4.3+dfsg
 (arch-bits=32)_ZN5draco11CornerTable4InitERKNS_15IndexTypeVectorINS_9IndexTypeIjNS_19FaceIndex_tag_type_EEESt5arrayINS2_IjNS_21VertexIndex_tag_type_EEELj3EEEE@Base 1.4.3+dfsg
 (arch-bits=64)_ZN5draco11CornerTable4InitERKNS_15IndexTypeVectorINS_9IndexTypeIjNS_19FaceIndex_tag_type_EEESt5arrayINS2_IjNS_21VertexIndex_tag_type_EEELm3EEEE@Base 1.4.3+dfsg
 _ZN5draco11CornerTable5ResetEi@Base 1.4.3+dfsg
 _ZN5draco11CornerTable5ResetEii@Base 1.4.3+dfsg
 (arch-bits=32)_ZN5draco11CornerTable6CreateERKNS_15IndexTypeVectorINS_9IndexTypeIjNS_19FaceIndex_tag_type_EEESt5arrayINS2_IjNS_21VertexIndex_tag_type_EEELj3EEEE@Base 1.4.3+dfsg
 (arch-bits=64)_ZN5draco11CornerTable6CreateERKNS_15IndexTypeVectorINS_9IndexTypeIjNS_19FaceIndex_tag_type_EEESt5arrayINS2_IjNS_21VertexIndex_tag_type_EEELm3EEEE@Base 1.4.3+dfsg
 _ZN5draco11CornerTableC1Ev@Base 1.4.3+dfsg
 _ZN5draco11CornerTableC2Ev@Base 1.4.3+dfsg
 _ZN5draco11Dequantizer4InitEf@Base 1.4.3+dfsg
 _ZN5draco11Dequantizer4InitEfi@Base 1.4.3+dfsg
 _ZN5draco11DequantizerC1Ev@Base 1.4.3+dfsg
 _ZN5draco11DequantizerC2Ev@Base 1.4.3+dfsg
 _ZN5draco11GetFileSizeERKNSt7__cxx1112basic_stringIcSt11char_traitsIcESaIcEEE@Base 1.4.3+dfsg
 _ZN5draco11GetFullPathERKNSt7__cxx1112basic_stringIcSt11char_traitsIcESaIcEEES7_@Base 1.4.3+dfsg
 _ZN5draco11MeshCleanup20MakeGeometryManifoldEPNS_4MeshE@Base 1.4.3+dfsg
 _ZN5draco11MeshCleanup20RemoveDuplicateFacesEPNS_4MeshE@Base 1.4.3+dfsg
 _ZN5draco11MeshCleanup22RemoveDegeneratedFacesEPNS_4MeshE@Base 1.4.3+dfsg
 _ZN5draco11MeshCleanup22RemoveUnusedAttributesEPNS_4MeshE@Base 1.4.3+dfsg
 _ZN5draco11MeshCleanup7CleanupEPNS_4MeshERKNS_18MeshCleanupOptionsE@Base 1.4.3+dfsg
 _ZN5draco11MeshDecoder18DecodeGeometryDataEv@Base 1.4.3+dfsg
 _ZN5draco11MeshDecoder6DecodeERKNS_12DracoOptionsINS_17GeometryAttribute4TypeEEEPNS_13DecoderBufferEPNS_4MeshE@Base 1.4.3+dfsg
 _ZN5draco11MeshDecoderC1Ev@Base 1.4.3+dfsg
 _ZN5draco11MeshDecoderC2Ev@Base 1.4.3+dfsg
 _ZN5draco11MeshEncoder18EncodeGeometryDataEv@Base 1.4.3+dfsg
 _ZN5draco11MeshEncoder7SetMeshERKNS_4MeshE@Base 1.4.3+dfsg
 _ZN5draco11MeshEncoderC1Ev@Base 1.4.3+dfsg
 _ZN5draco11MeshEncoderC2Ev@Base 1.4.3+dfsg
 _ZN5draco11PlyPropertyC1ERKNSt7__cxx1112basic_stringIcSt11char_traitsIcESaIcEEENS_8DataTypeES9_@Base 1.4.3+dfsg
 _ZN5draco11PlyPropertyC2ERKNSt7__cxx1112basic_stringIcSt11char_traitsIcESaIcEEENS_8DataTypeES9_@Base 1.4.3+dfsg
 (arch-bits=32|optional)_ZN5draco12CrossProductIxEENS_7VectorDIT_Li3EEERKS3_S5_@Base 1.4.3+dfsg
 (arch-bits=64|optional)_ZN5draco12CrossProductIlEENS_7VectorDIT_Li3EEERKS3_S5_@Base 1.4.3+dfsg
 (optional)_ZN5draco12DracoOptionsINS_17GeometryAttribute4TypeEE19GetAttributeOptionsERKS2_@Base 1.4.3+dfsg
 (optional)_ZN5draco12DracoOptionsIiE19GetAttributeOptionsERKi@Base 1.4.3+dfsg
 (optional)_ZN5draco12EncodeVarintIjEEbT_PNS_13EncoderBufferE@Base 1.4.3+dfsg
 (arch-bits=32)_ZN5draco12EncodeVarintIyEEbT_PNS_13EncoderBufferE@Base 1.4.3+dfsg
 (arch-bits=64|optional)_ZN5draco12EncodeVarintImEEbT_PNS_13EncoderBufferE@Base 1.4.3+dfsg
 _ZN5draco13DecodeSymbolsEjiPNS_13DecoderBufferEPj@Base 1.4.3+dfsg
 _ZN5draco13DecoderBuffer10BitDecoderC1Ev@Base 1.4.3+dfsg
 _ZN5draco13DecoderBuffer10BitDecoderC2Ev@Base 1.4.3+dfsg
 _ZN5draco13DecoderBuffer10BitDecoderD1Ev@Base 1.4.3+dfsg
 _ZN5draco13DecoderBuffer10BitDecoderD2Ev@Base 1.4.3+dfsg
 _ZN5draco13DecoderBuffer14EndBitDecodingEv@Base 1.4.3+dfsg
 (arch-bits=32)_ZN5draco13DecoderBuffer16StartBitDecodingEbPy@Base 1.4.3+dfsg
 (arch-bits=64)_ZN5draco13DecoderBuffer16StartBitDecodingEbPm@Base 1.4.3+dfsg
 (arch-bits=32)_ZN5draco13DecoderBuffer4InitEPKcj@Base 1.4.3+dfsg
 (arch-bits=64)_ZN5draco13DecoderBuffer4InitEPKcm@Base 1.4.3+dfsg
 (arch-bits=32)_ZN5draco13DecoderBuffer4InitEPKcjt@Base 1.4.3+dfsg
 (arch-bits=64)_ZN5draco13DecoderBuffer4InitEPKcmt@Base 1.4.3+dfsg
 _ZN5draco13DecoderBufferC1Ev@Base 1.4.3+dfsg
 _ZN5draco13DecoderBufferC2Ev@Base 1.4.3+dfsg
 _ZN5draco13EncodeSymbolsEPKjiiPKNS_7OptionsEPNS_13EncoderBufferE@Base 1.4.3+dfsg
 _ZN5draco13EncoderBuffer14EndBitEncodingEv@Base 1.4.3+dfsg
 (arch-bits=32)_ZN5draco13EncoderBuffer16StartBitEncodingExb@Base 1.4.3+dfsg
 (arch-bits=64)_ZN5draco13EncoderBuffer16StartBitEncodingElb@Base 1.4.3+dfsg
 _ZN5draco13EncoderBuffer5ClearEv@Base 1.4.3+dfsg
 (arch-bits=32)_ZN5draco13EncoderBuffer6ResizeEx@Base 1.4.3+dfsg
 (arch-bits=64)_ZN5draco13EncoderBuffer6ResizeEl@Base 1.4.3+dfsg
 _ZN5draco13EncoderBufferC1Ev@Base 1.4.3+dfsg
 _ZN5draco13EncoderBufferC2Ev@Base 1.4.3+dfsg
 _ZN5draco13ExpertEncoder14EncodeToBufferEPNS_13EncoderBufferE@Base 1.4.3+dfsg
 _ZN5draco13ExpertEncoder15SetSpeedOptionsEii@Base 1.4.3+dfsg
 _ZN5draco13ExpertEncoder17SetEncodingMethodEi@Base 1.4.3+dfsg
 _ZN5draco13ExpertEncoder18EncodeMeshToBufferERKNS_4MeshEPNS_13EncoderBufferE@Base 1.4.3+dfsg
 _ZN5draco13ExpertEncoder20SetEncodingSubmethodEi@Base 1.4.3+dfsg
 _ZN5draco13ExpertEncoder24EncodePointCloudToBufferERKNS_10PointCloudEPNS_13EncoderBufferE@Base 1.4.3+dfsg
 _ZN5draco13ExpertEncoder24SetAttributeQuantizationEii@Base 1.4.3+dfsg
 _ZN5draco13ExpertEncoder28SetAttributePredictionSchemeEii@Base 1.4.3+dfsg
 _ZN5draco13ExpertEncoder32SetAttributeExplicitQuantizationEiiiPKff@Base 1.4.3+dfsg
 _ZN5draco13ExpertEncoder33SetUseBuiltInAttributeCompressionEb@Base 1.4.3+dfsg
 _ZN5draco13ExpertEncoder5ResetERKNS_18EncoderOptionsBaseIiEE@Base 1.4.3+dfsg
 _ZN5draco13ExpertEncoder5ResetEv@Base 1.4.3+dfsg
 _ZN5draco13ExpertEncoderC1ERKNS_10PointCloudE@Base 1.4.3+dfsg
 _ZN5draco13ExpertEncoderC1ERKNS_4MeshE@Base 1.4.3+dfsg
 _ZN5draco13ExpertEncoderC2ERKNS_10PointCloudE@Base 1.4.3+dfsg
 _ZN5draco13ExpertEncoderC2ERKNS_4MeshE@Base 1.4.3+dfsg
 _ZN5draco14DataTypeLengthENS_8DataTypeE@Base 1.4.3+dfsg
 _ZN5draco14MeshStripifier24GenerateStripsFromCornerEiNS_9IndexTypeIjNS_21CornerIndex_tag_type_EEE@Base 1.4.3+dfsg
 (arch-bits=32)_ZN5draco14PointAttribute4InitENS_17GeometryAttribute4TypeEaNS_8DataTypeEbj@Base 1.4.3+dfsg
 (arch-bits=64)_ZN5draco14PointAttribute4InitENS_17GeometryAttribute4TypeEaNS_8DataTypeEbm@Base 1.4.3+dfsg
 (arch-bits=32)_ZN5draco14PointAttribute5ResetEj@Base 1.4.3+dfsg
 (arch-bits=64)_ZN5draco14PointAttribute5ResetEm@Base 1.4.3+dfsg
 (arch-bits=32)_ZN5draco14PointAttribute6ResizeEj@Base 1.4.3+dfsg
 (arch-bits=64)_ZN5draco14PointAttribute6ResizeEm@Base 1.4.3+dfsg
 _ZN5draco14PointAttribute8CopyFromERKS0_@Base 1.4.3+dfsg
 _ZN5draco14PointAttributeC1ERKNS_17GeometryAttributeE@Base 1.4.3+dfsg
 _ZN5draco14PointAttributeC1Ev@Base 1.4.3+dfsg
 _ZN5draco14PointAttributeC2ERKNS_17GeometryAttributeE@Base 1.4.3+dfsg
 _ZN5draco14PointAttributeC2Ev@Base 1.4.3+dfsg
 _ZN5draco14RAnsBitDecoder13DecodeNextBitEv@Base 1.4.3+dfsg
 _ZN5draco14RAnsBitDecoder13StartDecodingEPNS_13DecoderBufferE@Base 1.4.3+dfsg
 _ZN5draco14RAnsBitDecoder28DecodeLeastSignificantBits32EiPj@Base 1.4.3+dfsg
 _ZN5draco14RAnsBitDecoder5ClearEv@Base 1.4.3+dfsg
 _ZN5draco14RAnsBitDecoderC1Ev@Base 1.4.3+dfsg
 _ZN5draco14RAnsBitDecoderC2Ev@Base 1.4.3+dfsg
 _ZN5draco14RAnsBitDecoderD1Ev@Base 1.4.3+dfsg
 _ZN5draco14RAnsBitDecoderD2Ev@Base 1.4.3+dfsg
 _ZN5draco14RAnsBitEncoder11EndEncodingEPNS_13EncoderBufferE@Base 1.4.3+dfsg
 _ZN5draco14RAnsBitEncoder13StartEncodingEv@Base 1.4.3+dfsg
 _ZN5draco14RAnsBitEncoder28EncodeLeastSignificantBits32Eij@Base 1.4.3+dfsg
 _ZN5draco14RAnsBitEncoder5ClearEv@Base 1.4.3+dfsg
 _ZN5draco14RAnsBitEncoder9EncodeBitEb@Base 1.4.3+dfsg
 _ZN5draco14RAnsBitEncoderC1Ev@Base 1.4.3+dfsg
 _ZN5draco14RAnsBitEncoderC2Ev@Base 1.4.3+dfsg
 _ZN5draco14RAnsBitEncoderD1Ev@Base 1.4.3+dfsg
 _ZN5draco14RAnsBitEncoderD2Ev@Base 1.4.3+dfsg
 _ZN5draco15DirectoryExistsERKNSt7__cxx1112basic_stringIcSt11char_traitsIcESaIcEEE@Base 1.4.3+dfsg
 _ZN5draco15MetadataDecoder10DecodeNameEPNSt7__cxx1112basic_stringIcSt11char_traitsIcESaIcEEE@Base 1.4.3+dfsg
 _ZN5draco15MetadataDecoder11DecodeEntryEPNS_8MetadataE@Base 1.4.3+dfsg
 _ZN5draco15MetadataDecoder14DecodeMetadataEPNS_13DecoderBufferEPNS_8MetadataE@Base 1.4.3+dfsg
 _ZN5draco15MetadataDecoder14DecodeMetadataEPNS_8MetadataE@Base 1.4.3+dfsg
 _ZN5draco15MetadataDecoder22DecodeGeometryMetadataEPNS_13DecoderBufferEPNS_16GeometryMetadataE@Base 1.4.3+dfsg
 _ZN5draco15MetadataDecoderC1Ev@Base 1.4.3+dfsg
 _ZN5draco15MetadataDecoderC2Ev@Base 1.4.3+dfsg
 _ZN5draco15MetadataEncoder12EncodeStringEPNS_13EncoderBufferERKNSt7__cxx1112basic_stringIcSt11char_traitsIcESaIcEEE@Base 1.4.3+dfsg
 _ZN5draco15MetadataEncoder14EncodeMetadataEPNS_13EncoderBufferEPKNS_8MetadataE@Base 1.4.3+dfsg
 _ZN5draco15MetadataEncoder22EncodeGeometryMetadataEPNS_13EncoderBufferEPKNS_16GeometryMetadataE@Base 1.4.3+dfsg
 _ZN5draco15MetadataEncoder23EncodeAttributeMetadataEPNS_13EncoderBufferEPKNS_17AttributeMetadataE@Base 1.4.3+dfsg
 _ZN5draco15StdioFileReader11GetFileSizeEv@Base 1.4.3+dfsg
 _ZN5draco15StdioFileReader16ReadFileToBufferEPSt6vectorIcSaIcEE@Base 1.4.3+dfsg
 _ZN5draco15StdioFileReader16ReadFileToBufferEPSt6vectorIhSaIhEE@Base 1.4.3+dfsg
 _ZN5draco15StdioFileReader22registered_in_factory_E@Base 1.4.3+dfsg
 _ZN5draco15StdioFileReader4OpenERKNSt7__cxx1112basic_stringIcSt11char_traitsIcESaIcEEE@Base 1.4.3+dfsg
 _ZN5draco15StdioFileReaderD0Ev@Base 1.4.3+dfsg
 _ZN5draco15StdioFileReaderD1Ev@Base 1.4.3+dfsg
 _ZN5draco15StdioFileReaderD2Ev@Base 1.4.3+dfsg
 _ZN5draco15StdioFileWriter22registered_in_factory_E@Base 1.4.3+dfsg
 _ZN5draco15StdioFileWriter4OpenERKNSt7__cxx1112basic_stringIcSt11char_traitsIcESaIcEEE@Base 1.4.3+dfsg
 (arch-bits=32)_ZN5draco15StdioFileWriter5WriteEPKcj@Base 1.4.3+dfsg
 (arch-bits=64)_ZN5draco15StdioFileWriter5WriteEPKcm@Base 1.4.3+dfsg
 _ZN5draco15StdioFileWriterD0Ev@Base 1.4.3+dfsg
 _ZN5draco15StdioFileWriterD1Ev@Base 1.4.3+dfsg
 _ZN5draco15StdioFileWriterD2Ev@Base 1.4.3+dfsg
 (optional)_ZN5draco16DecodeRawSymbolsINS_17RAnsSymbolDecoderEEEbjPNS_13DecoderBufferEPj@Base 1.4.3+dfsg
 _ZN5draco16DirectBitDecoder13StartDecodingEPNS_13DecoderBufferE@Base 1.4.3+dfsg
 _ZN5draco16DirectBitDecoder5ClearEv@Base 1.4.3+dfsg
 _ZN5draco16DirectBitDecoderC1Ev@Base 1.4.3+dfsg
 _ZN5draco16DirectBitDecoderC2Ev@Base 1.4.3+dfsg
 _ZN5draco16DirectBitDecoderD1Ev@Base 1.4.3+dfsg
 _ZN5draco16DirectBitDecoderD2Ev@Base 1.4.3+dfsg
 _ZN5draco16DirectBitEncoder11EndEncodingEPNS_13EncoderBufferE@Base 1.4.3+dfsg
 _ZN5draco16DirectBitEncoder13StartEncodingEv@Base 1.4.3+dfsg
 _ZN5draco16DirectBitEncoder5ClearEv@Base 1.4.3+dfsg
 _ZN5draco16DirectBitEncoderC1Ev@Base 1.4.3+dfsg
 _ZN5draco16DirectBitEncoderC2Ev@Base 1.4.3+dfsg
 _ZN5draco16DirectBitEncoderD1Ev@Base 1.4.3+dfsg
 _ZN5draco16DirectBitEncoderD2Ev@Base 1.4.3+dfsg
 (optional)_ZN5draco16EncodeRawSymbolsINS_17RAnsSymbolEncoderEEEbPKjijiPKNS_7OptionsEPNS_13EncoderBufferE@Base 1.4.3+dfsg
 _ZN5draco16GeometryMetadata20AddAttributeMetadataESt10unique_ptrINS_17AttributeMetadataESt14default_deleteIS2_EE@Base 1.4.3+dfsg
 _ZN5draco16GeometryMetadataC1ERKS0_@Base 1.4.3+dfsg
 _ZN5draco16GeometryMetadataC2ERKS0_@Base 1.4.3+dfsg
 _ZN5draco16ReadFileToBufferERKNSt7__cxx1112basic_stringIcSt11char_traitsIcESaIcEEEPSt6vectorIcS4_E@Base 1.4.3+dfsg
 _ZN5draco16ReadFileToBufferERKNSt7__cxx1112basic_stringIcSt11char_traitsIcESaIcEEEPSt6vectorIhSaIhEE@Base 1.4.3+dfsg
 _ZN5draco16ReadMeshFromFileERKNSt7__cxx1112basic_stringIcSt11char_traitsIcESaIcEEE@Base 1.4.3+dfsg
 _ZN5draco16ReadMeshFromFileERKNSt7__cxx1112basic_stringIcSt11char_traitsIcESaIcEEERKNS_7OptionsE@Base 1.4.3+dfsg
 _ZN5draco16ReadMeshFromFileERKNSt7__cxx1112basic_stringIcSt11char_traitsIcESaIcEEERKNS_7OptionsEPSt6vectorIS5_SaIS5_EE@Base 1.4.3+dfsg
 _ZN5draco16ReadMeshFromFileERKNSt7__cxx1112basic_stringIcSt11char_traitsIcESaIcEEEb@Base 1.4.3+dfsg
 _ZN5draco16SplitPathPrivateERKNSt7__cxx1112basic_stringIcSt11char_traitsIcESaIcEEEPS5_S8_@Base 1.4.3+dfsg
 _ZN5draco16SymbolBitDecoder13DecodeNextBitEv@Base 1.4.3+dfsg
 _ZN5draco16SymbolBitDecoder13StartDecodingEPNS_13DecoderBufferE@Base 1.4.3+dfsg
 _ZN5draco16SymbolBitDecoder28DecodeLeastSignificantBits32EiPj@Base 1.4.3+dfsg
 _ZN5draco16SymbolBitDecoder5ClearEv@Base 1.4.3+dfsg
 _ZN5draco16SymbolBitEncoder11EndEncodingEPNS_13EncoderBufferE@Base 1.4.3+dfsg
 _ZN5draco16SymbolBitEncoder28EncodeLeastSignificantBits32Eij@Base 1.4.3+dfsg
 _ZN5draco16SymbolBitEncoder5ClearEv@Base 1.4.3+dfsg
 _ZN5draco16vp10_fastdiv_tabE@Base 1.4.3+dfsg
 _ZN5draco17AttributeMetadataC1ERKS0_@Base 1.4.3+dfsg
 _ZN5draco17AttributeMetadataC2ERKS0_@Base 1.4.3+dfsg
 _ZN5draco17AttributesDecoder27DecodeAttributesDecoderDataEPNS_13DecoderBufferE@Base 1.4.3+dfsg
 _ZN5draco17AttributesDecoder4InitEPNS_17PointCloudDecoderEPNS_10PointCloudE@Base 1.4.3+dfsg
 _ZN5draco17AttributesDecoderC1Ev@Base 1.4.3+dfsg
 _ZN5draco17AttributesDecoderC2Ev@Base 1.4.3+dfsg
 _ZN5draco17AttributesEncoder27EncodeAttributesEncoderDataEPNS_13EncoderBufferE@Base 1.4.3+dfsg
 _ZN5draco17AttributesEncoder4InitEPNS_17PointCloudEncoderEPKNS_10PointCloudE@Base 1.4.3+dfsg
 _ZN5draco17AttributesEncoderC1Ei@Base 1.4.3+dfsg
 _ZN5draco17AttributesEncoderC1Ev@Base 1.4.3+dfsg
 _ZN5draco17AttributesEncoderC2Ei@Base 1.4.3+dfsg
 _ZN5draco17AttributesEncoderC2Ev@Base 1.4.3+dfsg
 _ZN5draco17CreateMeshDecoderEh@Base 1.4.3+dfsg
 _ZN5draco17FileReaderFactory10OpenReaderERKNSt7__cxx1112basic_stringIcSt11char_traitsIcESaIcEEE@Base 1.4.3+dfsg
 _ZN5draco17FileReaderFactory14RegisterReaderEPFSt10unique_ptrINS_19FileReaderInterfaceESt14default_deleteIS2_EERKNSt7__cxx1112basic_stringIcSt11char_traitsIcESaIcEEEE@Base 1.4.3+dfsg
 _ZN5draco17FileWriterFactory10OpenWriterERKNSt7__cxx1112basic_stringIcSt11char_traitsIcESaIcEEE@Base 1.4.3+dfsg
 _ZN5draco17FileWriterFactory14RegisterWriterEPFSt10unique_ptrINS_19FileWriterInterfaceESt14default_deleteIS2_EERKNSt7__cxx1112basic_stringIcSt11char_traitsIcESaIcEEEE@Base 1.4.3+dfsg
 (arch-bits=32)_ZN5draco17FingerprintStringEPKcj@Base 1.4.3+dfsg
 (arch-bits=64)_ZN5draco17FingerprintStringEPKcm@Base 1.4.3+dfsg
 (arch-bits=32)_ZN5draco17GeometryAttribute11ResetBufferEPNS_10DataBufferExx@Base 1.4.3+dfsg
 (arch-bits=64)_ZN5draco17GeometryAttribute11ResetBufferEPNS_10DataBufferEll@Base 1.4.3+dfsg
 (arch-bits=32)_ZN5draco17GeometryAttribute4InitENS0_4TypeEPNS_10DataBufferEaNS_8DataTypeEbxx@Base 1.4.3+dfsg
 (arch-bits=64)_ZN5draco17GeometryAttribute4InitENS0_4TypeEPNS_10DataBufferEaNS_8DataTypeEbll@Base 1.4.3+dfsg
 _ZN5draco17GeometryAttribute8CopyFromERKS0_@Base 1.4.3+dfsg
 _ZN5draco17GeometryAttributeC1Ev@Base 1.4.3+dfsg
 _ZN5draco17GeometryAttributeC2Ev@Base 1.4.3+dfsg
 _ZN5draco17KeyframeAnimation13SetTimestampsERKSt6vectorIfSaIfEE@Base 1.4.3+dfsg
 _ZN5draco17KeyframeAnimationC1Ev@Base 1.4.3+dfsg
 _ZN5draco17KeyframeAnimationC2Ev@Base 1.4.3+dfsg
 _ZN5draco17MeshAreEquivalent11GetPositionERKNS_4MeshENS_9IndexTypeIjNS_19FaceIndex_tag_type_EEEi@Base 1.4.3+dfsg
 _ZN5draco17MeshAreEquivalent13PrintPositionERKNS_4MeshENS_9IndexTypeIjNS_19FaceIndex_tag_type_EEEi@Base 1.4.3+dfsg
 _ZN5draco17MeshAreEquivalent20InitOrderedFaceIndexEv@Base 1.4.3+dfsg
 _ZN5draco17MeshAreEquivalent33InitCornerIndexOfSmallestPointXYZEv@Base 1.4.3+dfsg
 _ZN5draco17MeshAreEquivalent36ComputeCornerIndexOfSmallestPointXYZERKNS_4MeshENS_9IndexTypeIjNS_19FaceIndex_tag_type_EEE@Base 1.4.3+dfsg
 _ZN5draco17MeshAreEquivalent4InitERKNS_4MeshES3_@Base 1.4.3+dfsg
 _ZN5draco17MeshAreEquivalentclERKNS_4MeshES3_@Base 1.4.3+dfsg
 _ZN5draco17PointCloudBuilder12AddAttributeENS_17GeometryAttribute4TypeEaNS_8DataTypeE@Base 1.4.3+dfsg
 _ZN5draco17PointCloudBuilder25SetAttributeValueForPointEiNS_9IndexTypeIjNS_20PointIndex_tag_type_EEEPKv@Base 1.4.3+dfsg
 _ZN5draco17PointCloudBuilder30SetAttributeValuesForAllPointsEiPKvi@Base 1.4.3+dfsg
 _ZN5draco17PointCloudBuilder5StartEj@Base 1.4.3+dfsg
 _ZN5draco17PointCloudBuilder8FinalizeEb@Base 1.4.3+dfsg
 _ZN5draco17PointCloudBuilderC1Ev@Base 1.4.3+dfsg
 _ZN5draco17PointCloudBuilderC2Ev@Base 1.4.3+dfsg
 _ZN5draco17PointCloudDecoder12DecodeHeaderEPNS_13DecoderBufferEPNS_11DracoHeaderE@Base 1.4.3+dfsg
 _ZN5draco17PointCloudDecoder14DecodeMetadataEv@Base 1.4.3+dfsg
 _ZN5draco17PointCloudDecoder19DecodeAllAttributesEv@Base 1.4.3+dfsg
 _ZN5draco17PointCloudDecoder20GetPortableAttributeEi@Base 1.4.3+dfsg
 _ZN5draco17PointCloudDecoder21DecodePointAttributesEv@Base 1.4.3+dfsg
 _ZN5draco17PointCloudDecoder6DecodeERKNS_12DracoOptionsINS_17GeometryAttribute4TypeEEEPNS_13DecoderBufferEPNS_10PointCloudE@Base 1.4.3+dfsg
 _ZN5draco17PointCloudDecoderC1Ev@Base 1.4.3+dfsg
 _ZN5draco17PointCloudDecoderC2Ev@Base 1.4.3+dfsg
 _ZN5draco17PointCloudEncoder12EncodeHeaderEv@Base 1.4.3+dfsg
 _ZN5draco17PointCloudEncoder13SetPointCloudERKNS_10PointCloudE@Base 1.4.3+dfsg
 _ZN5draco17PointCloudEncoder14EncodeMetadataEv@Base 1.4.3+dfsg
 _ZN5draco17PointCloudEncoder19EncodeAllAttributesEv@Base 1.4.3+dfsg
 _ZN5draco17PointCloudEncoder19MarkParentAttributeEi@Base 1.4.3+dfsg
 _ZN5draco17PointCloudEncoder20GetPortableAttributeEi@Base 1.4.3+dfsg
 _ZN5draco17PointCloudEncoder21EncodePointAttributesEv@Base 1.4.3+dfsg
 _ZN5draco17PointCloudEncoder26GenerateAttributesEncodersEv@Base 1.4.3+dfsg
 _ZN5draco17PointCloudEncoder27RearrangeAttributesEncodersEv@Base 1.4.3+dfsg
 _ZN5draco17PointCloudEncoder6EncodeERKNS_18EncoderOptionsBaseIiEEPNS_13EncoderBufferE@Base 1.4.3+dfsg
 _ZN5draco17PointCloudEncoderC1Ev@Base 1.4.3+dfsg
 _ZN5draco17PointCloudEncoderC2Ev@Base 1.4.3+dfsg
 (optional=O3)_ZN5draco17RAnsSymbolDecoderILi10EE6CreateEPNS_13DecoderBufferE@Base 1.4.3+dfsg
 (optional=O3)_ZN5draco17RAnsSymbolDecoderILi11EE6CreateEPNS_13DecoderBufferE@Base 1.4.3+dfsg
 (optional=O3)_ZN5draco17RAnsSymbolDecoderILi12EE6CreateEPNS_13DecoderBufferE@Base 1.4.3+dfsg
 (optional=O3)_ZN5draco17RAnsSymbolDecoderILi13EE6CreateEPNS_13DecoderBufferE@Base 1.4.3+dfsg
 (optional=O3)_ZN5draco17RAnsSymbolDecoderILi14EE6CreateEPNS_13DecoderBufferE@Base 1.4.3+dfsg
 (optional=O3)_ZN5draco17RAnsSymbolDecoderILi15EE6CreateEPNS_13DecoderBufferE@Base 1.4.3+dfsg
 (optional=O3)_ZN5draco17RAnsSymbolDecoderILi16EE6CreateEPNS_13DecoderBufferE@Base 1.4.3+dfsg
 (optional=O3)_ZN5draco17RAnsSymbolDecoderILi17EE6CreateEPNS_13DecoderBufferE@Base 1.4.3+dfsg
 (optional=O3)_ZN5draco17RAnsSymbolDecoderILi18EE6CreateEPNS_13DecoderBufferE@Base 1.4.3+dfsg
 (optional=O3)_ZN5draco17RAnsSymbolDecoderILi1EE6CreateEPNS_13DecoderBufferE@Base 1.4.3+dfsg
 (optional=O3)_ZN5draco17RAnsSymbolDecoderILi2EE6CreateEPNS_13DecoderBufferE@Base 1.4.3+dfsg
 (optional=O3)_ZN5draco17RAnsSymbolDecoderILi3EE6CreateEPNS_13DecoderBufferE@Base 1.4.3+dfsg
 (optional=O3)_ZN5draco17RAnsSymbolDecoderILi4EE6CreateEPNS_13DecoderBufferE@Base 1.4.3+dfsg
 (optional)_ZN5draco17RAnsSymbolDecoderILi5EE13StartDecodingEPNS_13DecoderBufferE@Base 1.4.3+dfsg
 (optional=O3)_ZN5draco17RAnsSymbolDecoderILi5EE6CreateEPNS_13DecoderBufferE@Base 1.4.3+dfsg
 (optional=O3)_ZN5draco17RAnsSymbolDecoderILi6EE6CreateEPNS_13DecoderBufferE@Base 1.4.3+dfsg
 (optional=O3)_ZN5draco17RAnsSymbolDecoderILi7EE6CreateEPNS_13DecoderBufferE@Base 1.4.3+dfsg
 (optional=O3)_ZN5draco17RAnsSymbolDecoderILi8EE6CreateEPNS_13DecoderBufferE@Base 1.4.3+dfsg
 (optional=O3)_ZN5draco17RAnsSymbolDecoderILi9EE6CreateEPNS_13DecoderBufferE@Base 1.4.3+dfsg
 (optional=O3)_ZN5draco17RAnsSymbolEncoderILi10EE11EncodeTableEPNS_13EncoderBufferE@Base 1.4.3+dfsg
 (optional=O3)_ZN5draco17RAnsSymbolEncoderILi10EE11EndEncodingEPNS_13EncoderBufferE@Base 1.4.3+dfsg
 (optional=O3)_ZN5draco17RAnsSymbolEncoderILi11EE11EncodeTableEPNS_13EncoderBufferE@Base 1.4.3+dfsg
 (optional=O3)_ZN5draco17RAnsSymbolEncoderILi11EE11EndEncodingEPNS_13EncoderBufferE@Base 1.4.3+dfsg
 (optional=O3)_ZN5draco17RAnsSymbolEncoderILi12EE11EncodeTableEPNS_13EncoderBufferE@Base 1.4.3+dfsg
 (optional=O3)_ZN5draco17RAnsSymbolEncoderILi12EE11EndEncodingEPNS_13EncoderBufferE@Base 1.4.3+dfsg
 (optional=O3)_ZN5draco17RAnsSymbolEncoderILi13EE11EncodeTableEPNS_13EncoderBufferE@Base 1.4.3+dfsg
 (optional=O3)_ZN5draco17RAnsSymbolEncoderILi13EE11EndEncodingEPNS_13EncoderBufferE@Base 1.4.3+dfsg
 (optional=O3)_ZN5draco17RAnsSymbolEncoderILi14EE11EncodeTableEPNS_13EncoderBufferE@Base 1.4.3+dfsg
 (optional=O3)_ZN5draco17RAnsSymbolEncoderILi14EE11EndEncodingEPNS_13EncoderBufferE@Base 1.4.3+dfsg
 (optional=O3)_ZN5draco17RAnsSymbolEncoderILi15EE11EncodeTableEPNS_13EncoderBufferE@Base 1.4.3+dfsg
 (optional=O3)_ZN5draco17RAnsSymbolEncoderILi15EE11EndEncodingEPNS_13EncoderBufferE@Base 1.4.3+dfsg
 (optional=O3)_ZN5draco17RAnsSymbolEncoderILi16EE11EncodeTableEPNS_13EncoderBufferE@Base 1.4.3+dfsg
 (optional=O3)_ZN5draco17RAnsSymbolEncoderILi16EE11EndEncodingEPNS_13EncoderBufferE@Base 1.4.3+dfsg
 (optional=O3)_ZN5draco17RAnsSymbolEncoderILi17EE11EncodeTableEPNS_13EncoderBufferE@Base 1.4.3+dfsg
 (optional=O3)_ZN5draco17RAnsSymbolEncoderILi17EE11EndEncodingEPNS_13EncoderBufferE@Base 1.4.3+dfsg
 (optional=O3)_ZN5draco17RAnsSymbolEncoderILi18EE11EncodeTableEPNS_13EncoderBufferE@Base 1.4.3+dfsg
 (optional=O3)_ZN5draco17RAnsSymbolEncoderILi18EE11EndEncodingEPNS_13EncoderBufferE@Base 1.4.3+dfsg
 (optional=O3)_ZN5draco17RAnsSymbolEncoderILi1EE11EncodeTableEPNS_13EncoderBufferE@Base 1.4.3+dfsg
 (optional=O3)_ZN5draco17RAnsSymbolEncoderILi1EE11EndEncodingEPNS_13EncoderBufferE@Base 1.4.3+dfsg
 (optional=O3)_ZN5draco17RAnsSymbolEncoderILi2EE11EncodeTableEPNS_13EncoderBufferE@Base 1.4.3+dfsg
 (optional=O3)_ZN5draco17RAnsSymbolEncoderILi2EE11EndEncodingEPNS_13EncoderBufferE@Base 1.4.3+dfsg
 (optional=O3)_ZN5draco17RAnsSymbolEncoderILi3EE11EncodeTableEPNS_13EncoderBufferE@Base 1.4.3+dfsg
 (optional=O3)_ZN5draco17RAnsSymbolEncoderILi3EE11EndEncodingEPNS_13EncoderBufferE@Base 1.4.3+dfsg
 (optional=O3)_ZN5draco17RAnsSymbolEncoderILi4EE11EncodeTableEPNS_13EncoderBufferE@Base 1.4.3+dfsg
 (optional=O3)_ZN5draco17RAnsSymbolEncoderILi4EE11EndEncodingEPNS_13EncoderBufferE@Base 1.4.3+dfsg
 (optional=O3)_ZN5draco17RAnsSymbolEncoderILi5EE11EncodeTableEPNS_13EncoderBufferE@Base 1.4.3+dfsg
 (optional=O3)_ZN5draco17RAnsSymbolEncoderILi5EE11EndEncodingEPNS_13EncoderBufferE@Base 1.4.3+dfsg
 (optional=O3)_ZN5draco17RAnsSymbolEncoderILi6EE11EncodeTableEPNS_13EncoderBufferE@Base 1.4.3+dfsg
 (optional=O3)_ZN5draco17RAnsSymbolEncoderILi6EE11EndEncodingEPNS_13EncoderBufferE@Base 1.4.3+dfsg
 (optional=O3)_ZN5draco17RAnsSymbolEncoderILi7EE11EncodeTableEPNS_13EncoderBufferE@Base 1.4.3+dfsg
 (optional=O3)_ZN5draco17RAnsSymbolEncoderILi7EE11EndEncodingEPNS_13EncoderBufferE@Base 1.4.3+dfsg
 (optional=O3)_ZN5draco17RAnsSymbolEncoderILi8EE11EncodeTableEPNS_13EncoderBufferE@Base 1.4.3+dfsg
 (optional=O3)_ZN5draco17RAnsSymbolEncoderILi8EE11EndEncodingEPNS_13EncoderBufferE@Base 1.4.3+dfsg
 (optional=O3)_ZN5draco17RAnsSymbolEncoderILi9EE11EncodeTableEPNS_13EncoderBufferE@Base 1.4.3+dfsg
 (optional=O3)_ZN5draco17RAnsSymbolEncoderILi9EE11EndEncodingEPNS_13EncoderBufferE@Base 1.4.3+dfsg
 (arch-bits=32)_ZN5draco17WriteBufferToFileEPKcjRKNSt7__cxx1112basic_stringIcSt11char_traitsIcESaIcEEE@Base 1.4.3+dfsg
 (arch-bits=64)_ZN5draco17WriteBufferToFileEPKcmRKNSt7__cxx1112basic_stringIcSt11char_traitsIcESaIcEEE@Base 1.4.3+dfsg
 (arch-bits=32)_ZN5draco17WriteBufferToFileEPKhjRKNSt7__cxx1112basic_stringIcSt11char_traitsIcESaIcEEE@Base 1.4.3+dfsg
 (arch-bits=64)_ZN5draco17WriteBufferToFileEPKhmRKNSt7__cxx1112basic_stringIcSt11char_traitsIcESaIcEEE@Base 1.4.3+dfsg
 (arch-bits=32)_ZN5draco17WriteBufferToFileEPKvjRKNSt7__cxx1112basic_stringIcSt11char_traitsIcESaIcEEE@Base 1.4.3+dfsg
 (arch-bits=64)_ZN5draco17WriteBufferToFileEPKvmRKNSt7__cxx1112basic_stringIcSt11char_traitsIcESaIcEEE@Base 1.4.3+dfsg
 _ZN5draco18AttributeTransform24InitTransformedAttributeERKNS_14PointAttributeEi@Base 1.4.3+dfsg
 _ZN5draco18IsDataTypeIntegralENS_8DataTypeE@Base 1.4.3+dfsg
 (optional)_ZN5draco19DecodeTaggedSymbolsINS_17RAnsSymbolDecoderEEEbjiPNS_13DecoderBufferEPj@Base 1.4.3+dfsg
 (optional)_ZN5draco19EncodeTaggedSymbolsINS_17RAnsSymbolEncoderEEEbPKjiiRKSt6vectorIjSaIjEEPNS_13EncoderBufferE@Base 1.4.3+dfsg
 _ZN5draco19RemoveFileExtensionERKNSt7__cxx1112basic_stringIcSt11char_traitsIcESaIcEEE@Base 1.4.3+dfsg
 _ZN5draco20ReplaceFileExtensionERKNSt7__cxx1112basic_stringIcSt11char_traitsIcESaIcEEES7_@Base 1.4.3+dfsg
 _ZN5draco21ComputeShannonEntropyEPKjiiPi@Base 1.4.3+dfsg
 _ZN5draco21MeshSequentialDecoder18DecodeConnectivityEv@Base 1.4.3+dfsg
 _ZN5draco21MeshSequentialDecoder23CreateAttributesDecoderEi@Base 1.4.3+dfsg
 _ZN5draco21MeshSequentialDecoder26DecodeAndDecompressIndicesEj@Base 1.4.3+dfsg
 _ZN5draco21MeshSequentialDecoderC1Ev@Base 1.4.3+dfsg
 _ZN5draco21MeshSequentialDecoderC2Ev@Base 1.4.3+dfsg
 _ZN5draco21MeshSequentialEncoder18EncodeConnectivityEv@Base 1.4.3+dfsg
 _ZN5draco21MeshSequentialEncoder24CompressAndEncodeIndicesEv@Base 1.4.3+dfsg
 _ZN5draco21MeshSequentialEncoder25GenerateAttributesEncoderEi@Base 1.4.3+dfsg
 _ZN5draco21MeshSequentialEncoder27ComputeNumberOfEncodedFacesEv@Base 1.4.3+dfsg
 _ZN5draco21MeshSequentialEncoder28ComputeNumberOfEncodedPointsEv@Base 1.4.3+dfsg
 _ZN5draco21MeshSequentialEncoderC1Ev@Base 1.4.3+dfsg
 _ZN5draco21MeshSequentialEncoderC2Ev@Base 1.4.3+dfsg
 _ZN5draco21ShannonEntropyTracker13UpdateSymbolsEPKjib@Base 1.4.3+dfsg
 _ZN5draco21ShannonEntropyTracker19GetNumberOfDataBitsERKNS0_11EntropyDataE@Base 1.4.3+dfsg
 _ZN5draco21ShannonEntropyTracker24GetNumberOfRAnsTableBitsERKNS0_11EntropyDataE@Base 1.4.3+dfsg
 _ZN5draco21ShannonEntropyTracker4PeekEPKji@Base 1.4.3+dfsg
 _ZN5draco21ShannonEntropyTracker4PushEPKji@Base 1.4.3+dfsg
 _ZN5draco21ShannonEntropyTrackerC1Ev@Base 1.4.3+dfsg
 _ZN5draco21ShannonEntropyTrackerC2Ev@Base 1.4.3+dfsg
 _ZN5draco22AdaptiveRAnsBitDecoder13DecodeNextBitEv@Base 1.4.3+dfsg
 _ZN5draco22AdaptiveRAnsBitDecoder13StartDecodingEPNS_13DecoderBufferE@Base 1.4.3+dfsg
 _ZN5draco22AdaptiveRAnsBitDecoder28DecodeLeastSignificantBits32EiPj@Base 1.4.3+dfsg
 _ZN5draco22AdaptiveRAnsBitDecoder5ClearEv@Base 1.4.3+dfsg
 _ZN5draco22AdaptiveRAnsBitDecoderC1Ev@Base 1.4.3+dfsg
 _ZN5draco22AdaptiveRAnsBitDecoderC2Ev@Base 1.4.3+dfsg
 _ZN5draco22AdaptiveRAnsBitDecoderD1Ev@Base 1.4.3+dfsg
 _ZN5draco22AdaptiveRAnsBitDecoderD2Ev@Base 1.4.3+dfsg
 _ZN5draco22AdaptiveRAnsBitEncoder11EndEncodingEPNS_13EncoderBufferE@Base 1.4.3+dfsg
 _ZN5draco22AdaptiveRAnsBitEncoder13StartEncodingEv@Base 1.4.3+dfsg
 _ZN5draco22AdaptiveRAnsBitEncoder5ClearEv@Base 1.4.3+dfsg
 _ZN5draco22AdaptiveRAnsBitEncoderC1Ev@Base 1.4.3+dfsg
 _ZN5draco22AdaptiveRAnsBitEncoderC2Ev@Base 1.4.3+dfsg
 _ZN5draco22AdaptiveRAnsBitEncoderD1Ev@Base 1.4.3+dfsg
 _ZN5draco22AdaptiveRAnsBitEncoderD2Ev@Base 1.4.3+dfsg
 _ZN5draco22FloatPointsTreeDecoder30DecodePointCloudKdTreeInternalEPNS_13DecoderBufferEPSt6vectorINS_7VectorDIjLi3EEESaIS5_EE@Base 1.4.3+dfsg
 _ZN5draco22FloatPointsTreeDecoderC1Ev@Base 1.4.3+dfsg
 _ZN5draco22FloatPointsTreeDecoderC2Ev@Base 1.4.3+dfsg
 _ZN5draco22FloatPointsTreeEncoder30EncodePointCloudKdTreeInternalEPSt6vectorINS_7VectorDIjLi3EEESaIS3_EE@Base 1.4.3+dfsg
 _ZN5draco22FloatPointsTreeEncoder8version_E@Base 1.4.3+dfsg
 _ZN5draco22FloatPointsTreeEncoderC1ENS_27PointCloudCompressionMethodE@Base 1.4.3+dfsg
 _ZN5draco22FloatPointsTreeEncoderC1ENS_27PointCloudCompressionMethodEjj@Base 1.4.3+dfsg
 _ZN5draco22FloatPointsTreeEncoderC2ENS_27PointCloudCompressionMethodE@Base 1.4.3+dfsg
 _ZN5draco22FloatPointsTreeEncoderC2ENS_27PointCloudCompressionMethodEjj@Base 1.4.3+dfsg
 _ZN5draco22LowercaseFileExtensionERKNSt7__cxx1112basic_stringIcSt11char_traitsIcESaIcEEE@Base 1.4.3+dfsg
 _ZN5draco22MeshEdgebreakerDecoder17InitializeDecoderEv@Base 1.4.3+dfsg
 _ZN5draco22MeshEdgebreakerDecoder18DecodeConnectivityEv@Base 1.4.3+dfsg
 _ZN5draco22MeshEdgebreakerDecoder19OnAttributesDecodedEv@Base 1.4.3+dfsg
 _ZN5draco22MeshEdgebreakerDecoder23CreateAttributesDecoderEi@Base 1.4.3+dfsg
 _ZN5draco22MeshEdgebreakerDecoderC1Ev@Base 1.4.3+dfsg
 _ZN5draco22MeshEdgebreakerDecoderC2Ev@Base 1.4.3+dfsg
 _ZN5draco22MeshEdgebreakerEncoder17InitializeEncoderEv@Base 1.4.3+dfsg
 _ZN5draco22MeshEdgebreakerEncoder18EncodeConnectivityEv@Base 1.4.3+dfsg
 _ZN5draco22MeshEdgebreakerEncoder25GenerateAttributesEncoderEi@Base 1.4.3+dfsg
 _ZN5draco22MeshEdgebreakerEncoder27ComputeNumberOfEncodedFacesEv@Base 1.4.3+dfsg
 _ZN5draco22MeshEdgebreakerEncoder28ComputeNumberOfEncodedPointsEv@Base 1.4.3+dfsg
 _ZN5draco22MeshEdgebreakerEncoder33EncodeAttributesEncoderIdentifierEi@Base 1.4.3+dfsg
 _ZN5draco22MeshEdgebreakerEncoderC1Ev@Base 1.4.3+dfsg
 _ZN5draco22MeshEdgebreakerEncoderC2Ev@Base 1.4.3+dfsg
 _ZN5draco22ReadPointCloudFromFileERKNSt7__cxx1112basic_stringIcSt11char_traitsIcESaIcEEE@Base 1.4.3+dfsg
 _ZN5draco22SelectPredictionMethodEiPKNS_17PointCloudEncoderE@Base 1.4.3+dfsg
 _ZN5draco23KdTreeAttributesDecoder24DecodePortableAttributesEPNS_13DecoderBufferE@Base 1.4.3+dfsg
 (optional)_ZN5draco23KdTreeAttributesDecoder34TransformAttributeBackToSignedTypeIaEEbPNS_14PointAttributeEi@Base 1.4.3+dfsg
 (optional=O3)_ZN5draco23KdTreeAttributesDecoder34TransformAttributeBackToSignedTypeIiEEbPNS_14PointAttributeEi@Base 1.4.3+dfsg
 (optional)_ZN5draco23KdTreeAttributesDecoder34TransformAttributeBackToSignedTypeIsEEbPNS_14PointAttributeEi@Base 1.4.3+dfsg
 _ZN5draco23KdTreeAttributesDecoder35TransformAttributesToOriginalFormatEv@Base 1.4.3+dfsg
 _ZN5draco23KdTreeAttributesDecoder36DecodeDataNeededByPortableTransformsEPNS_13DecoderBufferE@Base 1.4.3+dfsg
 _ZN5draco23KdTreeAttributesDecoderC1Ev@Base 1.4.3+dfsg
 _ZN5draco23KdTreeAttributesDecoderC2Ev@Base 1.4.3+dfsg
 _ZN5draco23KdTreeAttributesEncoder24EncodePortableAttributesEPNS_13EncoderBufferE@Base 1.4.3+dfsg
 _ZN5draco23KdTreeAttributesEncoder35TransformAttributesToPortableFormatEv@Base 1.4.3+dfsg
 _ZN5draco23KdTreeAttributesEncoder36EncodeDataNeededByPortableTransformsEPNS_13EncoderBufferE@Base 1.4.3+dfsg
 _ZN5draco23KdTreeAttributesEncoderC1Ei@Base 1.4.3+dfsg
 _ZN5draco23KdTreeAttributesEncoderC1Ev@Base 1.4.3+dfsg
 _ZN5draco23KdTreeAttributesEncoderC2Ei@Base 1.4.3+dfsg
 _ZN5draco23KdTreeAttributesEncoderC2Ev@Base 1.4.3+dfsg
 _ZN5draco23PointCloudKdTreeDecoder18DecodeGeometryDataEv@Base 1.4.3+dfsg
 _ZN5draco23PointCloudKdTreeDecoder23CreateAttributesDecoderEi@Base 1.4.3+dfsg
 _ZN5draco23PointCloudKdTreeEncoder18EncodeGeometryDataEv@Base 1.4.3+dfsg
 _ZN5draco23PointCloudKdTreeEncoder25GenerateAttributesEncoderEi@Base 1.4.3+dfsg
 _ZN5draco23PointCloudKdTreeEncoder28ComputeNumberOfEncodedPointsEv@Base 1.4.3+dfsg
 _ZN5draco23SetSymbolEncodingMethodEPNS_7OptionsENS_18SymbolCodingMethodE@Base 1.4.3+dfsg
 _ZN5draco23TriangleSoupMeshBuilder12AddAttributeENS_17GeometryAttribute4TypeEaNS_8DataTypeE@Base 1.4.3+dfsg
 _ZN5draco23TriangleSoupMeshBuilder25SetAttributeValuesForFaceEiNS_9IndexTypeIjNS_19FaceIndex_tag_type_EEEPKvS5_S5_@Base 1.4.3+dfsg
 _ZN5draco23TriangleSoupMeshBuilder31SetPerFaceAttributeValueForFaceEiNS_9IndexTypeIjNS_19FaceIndex_tag_type_EEEPKv@Base 1.4.3+dfsg
 _ZN5draco23TriangleSoupMeshBuilder5StartEi@Base 1.4.3+dfsg
 _ZN5draco23TriangleSoupMeshBuilder8FinalizeEv@Base 1.4.3+dfsg
 (optional)_ZN5draco24DecodeRawSymbolsInternalINS_17RAnsSymbolDecoderILi10EEEEEbjPNS_13DecoderBufferEPj@Base 1.4.3+dfsg
 (optional)_ZN5draco24DecodeRawSymbolsInternalINS_17RAnsSymbolDecoderILi11EEEEEbjPNS_13DecoderBufferEPj@Base 1.4.3+dfsg
 (optional)_ZN5draco24DecodeRawSymbolsInternalINS_17RAnsSymbolDecoderILi12EEEEEbjPNS_13DecoderBufferEPj@Base 1.4.3+dfsg
 (optional)_ZN5draco24DecodeRawSymbolsInternalINS_17RAnsSymbolDecoderILi13EEEEEbjPNS_13DecoderBufferEPj@Base 1.4.3+dfsg
 (optional)_ZN5draco24DecodeRawSymbolsInternalINS_17RAnsSymbolDecoderILi14EEEEEbjPNS_13DecoderBufferEPj@Base 1.4.3+dfsg
 (optional)_ZN5draco24DecodeRawSymbolsInternalINS_17RAnsSymbolDecoderILi15EEEEEbjPNS_13DecoderBufferEPj@Base 1.4.3+dfsg
 (optional)_ZN5draco24DecodeRawSymbolsInternalINS_17RAnsSymbolDecoderILi16EEEEEbjPNS_13DecoderBufferEPj@Base 1.4.3+dfsg
 (optional)_ZN5draco24DecodeRawSymbolsInternalINS_17RAnsSymbolDecoderILi17EEEEEbjPNS_13DecoderBufferEPj@Base 1.4.3+dfsg
 (optional)_ZN5draco24DecodeRawSymbolsInternalINS_17RAnsSymbolDecoderILi18EEEEEbjPNS_13DecoderBufferEPj@Base 1.4.3+dfsg
 (optional)_ZN5draco24DecodeRawSymbolsInternalINS_17RAnsSymbolDecoderILi1EEEEEbjPNS_13DecoderBufferEPj@Base 1.4.3+dfsg
 (optional)_ZN5draco24DecodeRawSymbolsInternalINS_17RAnsSymbolDecoderILi2EEEEEbjPNS_13DecoderBufferEPj@Base 1.4.3+dfsg
 (optional)_ZN5draco24DecodeRawSymbolsInternalINS_17RAnsSymbolDecoderILi3EEEEEbjPNS_13DecoderBufferEPj@Base 1.4.3+dfsg
 (optional)_ZN5draco24DecodeRawSymbolsInternalINS_17RAnsSymbolDecoderILi4EEEEEbjPNS_13DecoderBufferEPj@Base 1.4.3+dfsg
 (optional)_ZN5draco24DecodeRawSymbolsInternalINS_17RAnsSymbolDecoderILi5EEEEEbjPNS_13DecoderBufferEPj@Base 1.4.3+dfsg
 (optional)_ZN5draco24DecodeRawSymbolsInternalINS_17RAnsSymbolDecoderILi6EEEEEbjPNS_13DecoderBufferEPj@Base 1.4.3+dfsg
 (optional)_ZN5draco24DecodeRawSymbolsInternalINS_17RAnsSymbolDecoderILi7EEEEEbjPNS_13DecoderBufferEPj@Base 1.4.3+dfsg
 (optional)_ZN5draco24DecodeRawSymbolsInternalINS_17RAnsSymbolDecoderILi8EEEEEbjPNS_13DecoderBufferEPj@Base 1.4.3+dfsg
 (optional)_ZN5draco24DecodeRawSymbolsInternalINS_17RAnsSymbolDecoderILi9EEEEEbjPNS_13DecoderBufferEPj@Base 1.4.3+dfsg
 (optional)_ZN5draco24EncodeRawSymbolsInternalINS_17RAnsSymbolEncoderILi10EEEEEbPKjijPNS_13EncoderBufferE@Base 1.4.3+dfsg
 (optional)_ZN5draco24EncodeRawSymbolsInternalINS_17RAnsSymbolEncoderILi11EEEEEbPKjijPNS_13EncoderBufferE@Base 1.4.3+dfsg
 (optional)_ZN5draco24EncodeRawSymbolsInternalINS_17RAnsSymbolEncoderILi12EEEEEbPKjijPNS_13EncoderBufferE@Base 1.4.3+dfsg
 (optional)_ZN5draco24EncodeRawSymbolsInternalINS_17RAnsSymbolEncoderILi13EEEEEbPKjijPNS_13EncoderBufferE@Base 1.4.3+dfsg
 (optional)_ZN5draco24EncodeRawSymbolsInternalINS_17RAnsSymbolEncoderILi14EEEEEbPKjijPNS_13EncoderBufferE@Base 1.4.3+dfsg
 (optional)_ZN5draco24EncodeRawSymbolsInternalINS_17RAnsSymbolEncoderILi15EEEEEbPKjijPNS_13EncoderBufferE@Base 1.4.3+dfsg
 (optional)_ZN5draco24EncodeRawSymbolsInternalINS_17RAnsSymbolEncoderILi16EEEEEbPKjijPNS_13EncoderBufferE@Base 1.4.3+dfsg
 (optional)_ZN5draco24EncodeRawSymbolsInternalINS_17RAnsSymbolEncoderILi17EEEEEbPKjijPNS_13EncoderBufferE@Base 1.4.3+dfsg
 (optional)_ZN5draco24EncodeRawSymbolsInternalINS_17RAnsSymbolEncoderILi18EEEEEbPKjijPNS_13EncoderBufferE@Base 1.4.3+dfsg
 (optional)_ZN5draco24EncodeRawSymbolsInternalINS_17RAnsSymbolEncoderILi1EEEEEbPKjijPNS_13EncoderBufferE@Base 1.4.3+dfsg
 (optional)_ZN5draco24EncodeRawSymbolsInternalINS_17RAnsSymbolEncoderILi2EEEEEbPKjijPNS_13EncoderBufferE@Base 1.4.3+dfsg
 (optional)_ZN5draco24EncodeRawSymbolsInternalINS_17RAnsSymbolEncoderILi3EEEEEbPKjijPNS_13EncoderBufferE@Base 1.4.3+dfsg
 (optional)_ZN5draco24EncodeRawSymbolsInternalINS_17RAnsSymbolEncoderILi4EEEEEbPKjijPNS_13EncoderBufferE@Base 1.4.3+dfsg
 (optional)_ZN5draco24EncodeRawSymbolsInternalINS_17RAnsSymbolEncoderILi5EEEEEbPKjijPNS_13EncoderBufferE@Base 1.4.3+dfsg
 (optional)_ZN5draco24EncodeRawSymbolsInternalINS_17RAnsSymbolEncoderILi6EEEEEbPKjijPNS_13EncoderBufferE@Base 1.4.3+dfsg
 (optional)_ZN5draco24EncodeRawSymbolsInternalINS_17RAnsSymbolEncoderILi7EEEEEbPKjijPNS_13EncoderBufferE@Base 1.4.3+dfsg
 (optional)_ZN5draco24EncodeRawSymbolsInternalINS_17RAnsSymbolEncoderILi8EEEEEbPKjijPNS_13EncoderBufferE@Base 1.4.3+dfsg
 (optional)_ZN5draco24EncodeRawSymbolsInternalINS_17RAnsSymbolEncoderILi9EEEEEbPKjijPNS_13EncoderBufferE@Base 1.4.3+dfsg
 _ZN5draco24KeyframeAnimationDecoder6DecodeERKNS_12DracoOptionsINS_17GeometryAttribute4TypeEEEPNS_13DecoderBufferEPNS_17KeyframeAnimationE@Base 1.4.3+dfsg
 _ZN5draco24KeyframeAnimationEncoder23EncodeKeyframeAnimationERKNS_17KeyframeAnimationERKNS_18EncoderOptionsBaseIiEEPNS_13EncoderBufferE@Base 1.4.3+dfsg
 _ZN5draco24KeyframeAnimationEncoderC1Ev@Base 1.4.3+dfsg
 _ZN5draco24KeyframeAnimationEncoderC2Ev@Base 1.4.3+dfsg
 _ZN5draco24MeshAttributeCornerTable11AddSeamEdgeENS_9IndexTypeIjNS_21CornerIndex_tag_type_EEE@Base 1.4.3+dfsg
 _ZN5draco24MeshAttributeCornerTable17InitFromAttributeEPKNS_4MeshEPKNS_11CornerTableEPKNS_14PointAttributeE@Base 1.4.3+dfsg
 _ZN5draco24MeshAttributeCornerTable17RecomputeVerticesEPKNS_4MeshEPKNS_14PointAttributeE@Base 1.4.3+dfsg
 (optional)_ZN5draco24MeshAttributeCornerTable25RecomputeVerticesInternalILb1EEEvPKNS_4MeshEPKNS_14PointAttributeE@Base 1.4.3+dfsg
 _ZN5draco24MeshAttributeCornerTable9InitEmptyEPKNS_11CornerTableE@Base 1.4.3+dfsg
 _ZN5draco24MeshAttributeCornerTableC1Ev@Base 1.4.3+dfsg
 _ZN5draco24MeshAttributeCornerTableC2Ev@Base 1.4.3+dfsg
 _ZN5draco25CheckAndCreatePathForFileERKNSt7__cxx1112basic_stringIcSt11char_traitsIcESaIcEEE@Base 1.4.3+dfsg
 _ZN5draco26ConvertSignedIntsToSymbolsEPKiiPj@Base 1.4.3+dfsg
 _ZN5draco26ConvertSymbolsToSignedIntsEPKjiPi@Base 1.4.3+dfsg
 _ZN5draco26LowercaseMimeTypeExtensionERKNSt7__cxx1112basic_stringIcSt11char_traitsIcESaIcEEE@Base 1.4.3+dfsg
 _ZN5draco26MeshEdgebreakerDecoderImplINS_31MeshEdgebreakerTraversalDecoderEE13AttributeDataC1Ev@Base 1.4.3+dfsg
 _ZN5draco26MeshEdgebreakerDecoderImplINS_31MeshEdgebreakerTraversalDecoderEE13AttributeDataC2Ev@Base 1.4.3+dfsg
 _ZN5draco26MeshEdgebreakerDecoderImplINS_31MeshEdgebreakerTraversalDecoderEE15IsTopologySplitEiPNS_12EdgeFaceNameEPi@Base 1.4.3+dfsg
 _ZN5draco26MeshEdgebreakerDecoderImplINS_31MeshEdgebreakerTraversalDecoderEE18DecodeConnectivityEi@Base 1.4.3+dfsg
 _ZN5draco26MeshEdgebreakerDecoderImplINS_31MeshEdgebreakerTraversalDecoderEE18DecodeConnectivityEv@Base 1.4.3+dfsg
 _ZN5draco26MeshEdgebreakerDecoderImplINS_31MeshEdgebreakerTraversalDecoderEE18SetOppositeCornersENS_9IndexTypeIjNS_21CornerIndex_tag_type_EEES5_@Base 1.4.3+dfsg
 _ZN5draco26MeshEdgebreakerDecoderImplINS_31MeshEdgebreakerTraversalDecoderEE19OnAttributesDecodedEv@Base 1.4.3+dfsg
 _ZN5draco26MeshEdgebreakerDecoderImplINS_31MeshEdgebreakerTraversalDecoderEE21AssignPointsToCornersEi@Base 1.4.3+dfsg
 _ZN5draco26MeshEdgebreakerDecoderImplINS_31MeshEdgebreakerTraversalDecoderEE23CreateAttributesDecoderEi@Base 1.4.3+dfsg
 (optional)_ZN5draco26MeshEdgebreakerDecoderImplINS_31MeshEdgebreakerTraversalDecoderEE30CreateVertexTraversalSequencerINS_19DepthFirstTraverserINS_11CornerTableENS_36MeshAttributeIndicesEncodingObserverIS5_EEEEEESt10unique_ptrINS_15PointsSequencerESt14default_deleteISA_EEPNS_32MeshAttributeIndicesEncodingDataE@Base 1.4.3+dfsg
 (optional)_ZN5draco26MeshEdgebreakerDecoderImplINS_31MeshEdgebreakerTraversalDecoderEE30CreateVertexTraversalSequencerINS_28MaxPredictionDegreeTraverserINS_11CornerTableENS_36MeshAttributeIndicesEncodingObserverIS5_EEEEEESt10unique_ptrINS_15PointsSequencerESt14default_deleteISA_EEPNS_32MeshAttributeIndicesEncodingDataE@Base 1.4.3+dfsg
 _ZN5draco26MeshEdgebreakerDecoderImplINS_31MeshEdgebreakerTraversalDecoderEE32DecodeHoleAndTopologySplitEventsEPNS_13DecoderBufferE@Base 1.4.3+dfsg
 _ZN5draco26MeshEdgebreakerDecoderImplINS_31MeshEdgebreakerTraversalDecoderEE35DecodeAttributeConnectivitiesOnFaceENS_9IndexTypeIjNS_21CornerIndex_tag_type_EEE@Base 1.4.3+dfsg
 _ZN5draco26MeshEdgebreakerDecoderImplINS_31MeshEdgebreakerTraversalDecoderEE4InitEPNS_22MeshEdgebreakerDecoderE@Base 1.4.3+dfsg
 _ZN5draco26MeshEdgebreakerDecoderImplINS_31MeshEdgebreakerTraversalDecoderEEC1Ev@Base 1.4.3+dfsg
 _ZN5draco26MeshEdgebreakerDecoderImplINS_31MeshEdgebreakerTraversalDecoderEEC2Ev@Base 1.4.3+dfsg
 _ZN5draco26MeshEdgebreakerDecoderImplINS_38MeshEdgebreakerTraversalValenceDecoderEE13AttributeDataC1Ev@Base 1.4.3+dfsg
 _ZN5draco26MeshEdgebreakerDecoderImplINS_38MeshEdgebreakerTraversalValenceDecoderEE13AttributeDataC2Ev@Base 1.4.3+dfsg
 _ZN5draco26MeshEdgebreakerDecoderImplINS_38MeshEdgebreakerTraversalValenceDecoderEE15IsTopologySplitEiPNS_12EdgeFaceNameEPi@Base 1.4.3+dfsg
 _ZN5draco26MeshEdgebreakerDecoderImplINS_38MeshEdgebreakerTraversalValenceDecoderEE18DecodeConnectivityEi@Base 1.4.3+dfsg
 _ZN5draco26MeshEdgebreakerDecoderImplINS_38MeshEdgebreakerTraversalValenceDecoderEE18DecodeConnectivityEv@Base 1.4.3+dfsg
 _ZN5draco26MeshEdgebreakerDecoderImplINS_38MeshEdgebreakerTraversalValenceDecoderEE18SetOppositeCornersENS_9IndexTypeIjNS_21CornerIndex_tag_type_EEES5_@Base 1.4.3+dfsg
 _ZN5draco26MeshEdgebreakerDecoderImplINS_38MeshEdgebreakerTraversalValenceDecoderEE19OnAttributesDecodedEv@Base 1.4.3+dfsg
 _ZN5draco26MeshEdgebreakerDecoderImplINS_38MeshEdgebreakerTraversalValenceDecoderEE21AssignPointsToCornersEi@Base 1.4.3+dfsg
 _ZN5draco26MeshEdgebreakerDecoderImplINS_38MeshEdgebreakerTraversalValenceDecoderEE23CreateAttributesDecoderEi@Base 1.4.3+dfsg
 (optional)_ZN5draco26MeshEdgebreakerDecoderImplINS_38MeshEdgebreakerTraversalValenceDecoderEE30CreateVertexTraversalSequencerINS_19DepthFirstTraverserINS_11CornerTableENS_36MeshAttributeIndicesEncodingObserverIS5_EEEEEESt10unique_ptrINS_15PointsSequencerESt14default_deleteISA_EEPNS_32MeshAttributeIndicesEncodingDataE@Base 1.4.3+dfsg
 (optional)_ZN5draco26MeshEdgebreakerDecoderImplINS_38MeshEdgebreakerTraversalValenceDecoderEE30CreateVertexTraversalSequencerINS_28MaxPredictionDegreeTraverserINS_11CornerTableENS_36MeshAttributeIndicesEncodingObserverIS5_EEEEEESt10unique_ptrINS_15PointsSequencerESt14default_deleteISA_EEPNS_32MeshAttributeIndicesEncodingDataE@Base 1.4.3+dfsg
 _ZN5draco26MeshEdgebreakerDecoderImplINS_38MeshEdgebreakerTraversalValenceDecoderEE32DecodeHoleAndTopologySplitEventsEPNS_13DecoderBufferE@Base 1.4.3+dfsg
 _ZN5draco26MeshEdgebreakerDecoderImplINS_38MeshEdgebreakerTraversalValenceDecoderEE35DecodeAttributeConnectivitiesOnFaceENS_9IndexTypeIjNS_21CornerIndex_tag_type_EEE@Base 1.4.3+dfsg
 _ZN5draco26MeshEdgebreakerDecoderImplINS_38MeshEdgebreakerTraversalValenceDecoderEE4InitEPNS_22MeshEdgebreakerDecoderE@Base 1.4.3+dfsg
 _ZN5draco26MeshEdgebreakerDecoderImplINS_38MeshEdgebreakerTraversalValenceDecoderEEC1Ev@Base 1.4.3+dfsg
 _ZN5draco26MeshEdgebreakerDecoderImplINS_38MeshEdgebreakerTraversalValenceDecoderEEC2Ev@Base 1.4.3+dfsg
 _ZN5draco26MeshEdgebreakerEncoderImplINS_31MeshEdgebreakerTraversalEncoderEE10EncodeHoleENS_9IndexTypeIjNS_21CornerIndex_tag_type_EEEb@Base 1.4.3+dfsg
 _ZN5draco26MeshEdgebreakerEncoderImplINS_31MeshEdgebreakerTraversalEncoderEE13AttributeDataC1Ev@Base 1.4.3+dfsg
 _ZN5draco26MeshEdgebreakerEncoderImplINS_31MeshEdgebreakerTraversalEncoderEE13AttributeDataC2Ev@Base 1.4.3+dfsg
 _ZN5draco26MeshEdgebreakerEncoderImplINS_31MeshEdgebreakerTraversalEncoderEE15EncodeSplitDataEv@Base 1.4.3+dfsg
 _ZN5draco26MeshEdgebreakerEncoderImplINS_31MeshEdgebreakerTraversalEncoderEE17InitAttributeDataEv@Base 1.4.3+dfsg
 _ZN5draco26MeshEdgebreakerEncoderImplINS_31MeshEdgebreakerTraversalEncoderEE18EncodeConnectivityEv@Base 1.4.3+dfsg
 _ZN5draco26MeshEdgebreakerEncoderImplINS_31MeshEdgebreakerTraversalEncoderEE25GenerateAttributesEncoderEi@Base 1.4.3+dfsg
 _ZN5draco26MeshEdgebreakerEncoderImplINS_31MeshEdgebreakerTraversalEncoderEE28EncodeConnectivityFromCornerENS_9IndexTypeIjNS_21CornerIndex_tag_type_EEE@Base 1.4.3+dfsg
 (optional=O3)_ZN5draco26MeshEdgebreakerEncoderImplINS_31MeshEdgebreakerTraversalEncoderEE30CreateVertexTraversalSequencerINS_19DepthFirstTraverserINS_11CornerTableENS_36MeshAttributeIndicesEncodingObserverIS5_EEEEEESt10unique_ptrINS_15PointsSequencerESt14default_deleteISA_EEPNS_32MeshAttributeIndicesEncodingDataE@Base 1.4.3+dfsg
 (optional=O3)_ZN5draco26MeshEdgebreakerEncoderImplINS_31MeshEdgebreakerTraversalEncoderEE30CreateVertexTraversalSequencerINS_28MaxPredictionDegreeTraverserINS_11CornerTableENS_36MeshAttributeIndicesEncodingObserverIS5_EEEEEESt10unique_ptrINS_15PointsSequencerESt14default_deleteISA_EEPNS_32MeshAttributeIndicesEncodingDataE@Base 1.4.3+dfsg
 _ZN5draco26MeshEdgebreakerEncoderImplINS_31MeshEdgebreakerTraversalEncoderEE31CheckAndStoreTopologySplitEventEiiNS_12EdgeFaceNameEi@Base 1.4.3+dfsg
 _ZN5draco26MeshEdgebreakerEncoderImplINS_31MeshEdgebreakerTraversalEncoderEE33EncodeAttributesEncoderIdentifierEi@Base 1.4.3+dfsg
 _ZN5draco26MeshEdgebreakerEncoderImplINS_31MeshEdgebreakerTraversalEncoderEE35EncodeAttributeConnectivitiesOnFaceENS_9IndexTypeIjNS_21CornerIndex_tag_type_EEE@Base 1.4.3+dfsg
 _ZN5draco26MeshEdgebreakerEncoderImplINS_31MeshEdgebreakerTraversalEncoderEE4InitEPNS_22MeshEdgebreakerEncoderE@Base 1.4.3+dfsg
 _ZN5draco26MeshEdgebreakerEncoderImplINS_31MeshEdgebreakerTraversalEncoderEE9FindHolesEv@Base 1.4.3+dfsg
 _ZN5draco26MeshEdgebreakerEncoderImplINS_31MeshEdgebreakerTraversalEncoderEEC1Ev@Base 1.4.3+dfsg
 _ZN5draco26MeshEdgebreakerEncoderImplINS_31MeshEdgebreakerTraversalEncoderEEC2Ev@Base 1.4.3+dfsg
 _ZN5draco26MeshEdgebreakerEncoderImplINS_38MeshEdgebreakerTraversalValenceEncoderEE10EncodeHoleENS_9IndexTypeIjNS_21CornerIndex_tag_type_EEEb@Base 1.4.3+dfsg
 _ZN5draco26MeshEdgebreakerEncoderImplINS_38MeshEdgebreakerTraversalValenceEncoderEE13AttributeDataC1Ev@Base 1.4.3+dfsg
 _ZN5draco26MeshEdgebreakerEncoderImplINS_38MeshEdgebreakerTraversalValenceEncoderEE13AttributeDataC2Ev@Base 1.4.3+dfsg
 _ZN5draco26MeshEdgebreakerEncoderImplINS_38MeshEdgebreakerTraversalValenceEncoderEE15EncodeSplitDataEv@Base 1.4.3+dfsg
 _ZN5draco26MeshEdgebreakerEncoderImplINS_38MeshEdgebreakerTraversalValenceEncoderEE17InitAttributeDataEv@Base 1.4.3+dfsg
 _ZN5draco26MeshEdgebreakerEncoderImplINS_38MeshEdgebreakerTraversalValenceEncoderEE18EncodeConnectivityEv@Base 1.4.3+dfsg
 _ZN5draco26MeshEdgebreakerEncoderImplINS_38MeshEdgebreakerTraversalValenceEncoderEE25GenerateAttributesEncoderEi@Base 1.4.3+dfsg
 _ZN5draco26MeshEdgebreakerEncoderImplINS_38MeshEdgebreakerTraversalValenceEncoderEE28EncodeConnectivityFromCornerENS_9IndexTypeIjNS_21CornerIndex_tag_type_EEE@Base 1.4.3+dfsg
 (optional=O3)_ZN5draco26MeshEdgebreakerEncoderImplINS_38MeshEdgebreakerTraversalValenceEncoderEE30CreateVertexTraversalSequencerINS_19DepthFirstTraverserINS_11CornerTableENS_36MeshAttributeIndicesEncodingObserverIS5_EEEEEESt10unique_ptrINS_15PointsSequencerESt14default_deleteISA_EEPNS_32MeshAttributeIndicesEncodingDataE@Base 1.4.3+dfsg
 (optional=O3)_ZN5draco26MeshEdgebreakerEncoderImplINS_38MeshEdgebreakerTraversalValenceEncoderEE30CreateVertexTraversalSequencerINS_28MaxPredictionDegreeTraverserINS_11CornerTableENS_36MeshAttributeIndicesEncodingObserverIS5_EEEEEESt10unique_ptrINS_15PointsSequencerESt14default_deleteISA_EEPNS_32MeshAttributeIndicesEncodingDataE@Base 1.4.3+dfsg
 _ZN5draco26MeshEdgebreakerEncoderImplINS_38MeshEdgebreakerTraversalValenceEncoderEE31CheckAndStoreTopologySplitEventEiiNS_12EdgeFaceNameEi@Base 1.4.3+dfsg
 _ZN5draco26MeshEdgebreakerEncoderImplINS_38MeshEdgebreakerTraversalValenceEncoderEE33EncodeAttributesEncoderIdentifierEi@Base 1.4.3+dfsg
 _ZN5draco26MeshEdgebreakerEncoderImplINS_38MeshEdgebreakerTraversalValenceEncoderEE35EncodeAttributeConnectivitiesOnFaceENS_9IndexTypeIjNS_21CornerIndex_tag_type_EEE@Base 1.4.3+dfsg
 _ZN5draco26MeshEdgebreakerEncoderImplINS_38MeshEdgebreakerTraversalValenceEncoderEE4InitEPNS_22MeshEdgebreakerEncoderE@Base 1.4.3+dfsg
 _ZN5draco26MeshEdgebreakerEncoderImplINS_38MeshEdgebreakerTraversalValenceEncoderEE9FindHolesEv@Base 1.4.3+dfsg
 _ZN5draco26MeshEdgebreakerEncoderImplINS_38MeshEdgebreakerTraversalValenceEncoderEEC1Ev@Base 1.4.3+dfsg
 _ZN5draco26MeshEdgebreakerEncoderImplINS_38MeshEdgebreakerTraversalValenceEncoderEEC2Ev@Base 1.4.3+dfsg
 _ZN5draco26MeshEdgebreakerEncoderImplINS_41MeshEdgebreakerTraversalPredictiveEncoderEE10EncodeHoleENS_9IndexTypeIjNS_21CornerIndex_tag_type_EEEb@Base 1.4.3+dfsg
 _ZN5draco26MeshEdgebreakerEncoderImplINS_41MeshEdgebreakerTraversalPredictiveEncoderEE13AttributeDataC1Ev@Base 1.4.3+dfsg
 _ZN5draco26MeshEdgebreakerEncoderImplINS_41MeshEdgebreakerTraversalPredictiveEncoderEE13AttributeDataC2Ev@Base 1.4.3+dfsg
 _ZN5draco26MeshEdgebreakerEncoderImplINS_41MeshEdgebreakerTraversalPredictiveEncoderEE15EncodeSplitDataEv@Base 1.4.3+dfsg
 _ZN5draco26MeshEdgebreakerEncoderImplINS_41MeshEdgebreakerTraversalPredictiveEncoderEE17InitAttributeDataEv@Base 1.4.3+dfsg
 _ZN5draco26MeshEdgebreakerEncoderImplINS_41MeshEdgebreakerTraversalPredictiveEncoderEE18EncodeConnectivityEv@Base 1.4.3+dfsg
 _ZN5draco26MeshEdgebreakerEncoderImplINS_41MeshEdgebreakerTraversalPredictiveEncoderEE25GenerateAttributesEncoderEi@Base 1.4.3+dfsg
 _ZN5draco26MeshEdgebreakerEncoderImplINS_41MeshEdgebreakerTraversalPredictiveEncoderEE28EncodeConnectivityFromCornerENS_9IndexTypeIjNS_21CornerIndex_tag_type_EEE@Base 1.4.3+dfsg
 (optional=O3)_ZN5draco26MeshEdgebreakerEncoderImplINS_41MeshEdgebreakerTraversalPredictiveEncoderEE30CreateVertexTraversalSequencerINS_19DepthFirstTraverserINS_11CornerTableENS_36MeshAttributeIndicesEncodingObserverIS5_EEEEEESt10unique_ptrINS_15PointsSequencerESt14default_deleteISA_EEPNS_32MeshAttributeIndicesEncodingDataE@Base 1.4.3+dfsg
 (optional=O3)_ZN5draco26MeshEdgebreakerEncoderImplINS_41MeshEdgebreakerTraversalPredictiveEncoderEE30CreateVertexTraversalSequencerINS_28MaxPredictionDegreeTraverserINS_11CornerTableENS_36MeshAttributeIndicesEncodingObserverIS5_EEEEEESt10unique_ptrINS_15PointsSequencerESt14default_deleteISA_EEPNS_32MeshAttributeIndicesEncodingDataE@Base 1.4.3+dfsg
 _ZN5draco26MeshEdgebreakerEncoderImplINS_41MeshEdgebreakerTraversalPredictiveEncoderEE31CheckAndStoreTopologySplitEventEiiNS_12EdgeFaceNameEi@Base 1.4.3+dfsg
 _ZN5draco26MeshEdgebreakerEncoderImplINS_41MeshEdgebreakerTraversalPredictiveEncoderEE33EncodeAttributesEncoderIdentifierEi@Base 1.4.3+dfsg
 _ZN5draco26MeshEdgebreakerEncoderImplINS_41MeshEdgebreakerTraversalPredictiveEncoderEE35EncodeAttributeConnectivitiesOnFaceENS_9IndexTypeIjNS_21CornerIndex_tag_type_EEE@Base 1.4.3+dfsg
 _ZN5draco26MeshEdgebreakerEncoderImplINS_41MeshEdgebreakerTraversalPredictiveEncoderEE4InitEPNS_22MeshEdgebreakerEncoderE@Base 1.4.3+dfsg
 _ZN5draco26MeshEdgebreakerEncoderImplINS_41MeshEdgebreakerTraversalPredictiveEncoderEE9FindHolesEv@Base 1.4.3+dfsg
 _ZN5draco26MeshEdgebreakerEncoderImplINS_41MeshEdgebreakerTraversalPredictiveEncoderEEC1Ev@Base 1.4.3+dfsg
 _ZN5draco26MeshEdgebreakerEncoderImplINS_41MeshEdgebreakerTraversalPredictiveEncoderEEC2Ev@Base 1.4.3+dfsg
 _ZN5draco26SequentialAttributeDecoder12DecodeValuesERKSt6vectorINS_9IndexTypeIjNS_20PointIndex_tag_type_EEESaIS4_EEPNS_13DecoderBufferE@Base 1.4.3+dfsg
 _ZN5draco26SequentialAttributeDecoder20GetPortableAttributeEv@Base 1.4.3+dfsg
 _ZN5draco26SequentialAttributeDecoder20InitPredictionSchemeEPNS_25PredictionSchemeInterfaceE@Base 1.4.3+dfsg
 _ZN5draco26SequentialAttributeDecoder20InitializeStandaloneEPNS_14PointAttributeE@Base 1.4.3+dfsg
 _ZN5draco26SequentialAttributeDecoder23DecodePortableAttributeERKSt6vectorINS_9IndexTypeIjNS_20PointIndex_tag_type_EEESaIS4_EEPNS_13DecoderBufferE@Base 1.4.3+dfsg
 _ZN5draco26SequentialAttributeDecoder34TransformAttributeToOriginalFormatERKSt6vectorINS_9IndexTypeIjNS_20PointIndex_tag_type_EEESaIS4_EE@Base 1.4.3+dfsg
 _ZN5draco26SequentialAttributeDecoder35DecodeDataNeededByPortableTransformERKSt6vectorINS_9IndexTypeIjNS_20PointIndex_tag_type_EEESaIS4_EEPNS_13DecoderBufferE@Base 1.4.3+dfsg
 _ZN5draco26SequentialAttributeDecoder4InitEPNS_17PointCloudDecoderEi@Base 1.4.3+dfsg
 _ZN5draco26SequentialAttributeDecoderC1Ev@Base 1.4.3+dfsg
 _ZN5draco26SequentialAttributeDecoderC2Ev@Base 1.4.3+dfsg
 _ZN5draco26SequentialAttributeEncoder12EncodeValuesERKSt6vectorINS_9IndexTypeIjNS_20PointIndex_tag_type_EEESaIS4_EEPNS_13EncoderBufferE@Base 1.4.3+dfsg
 _ZN5draco26SequentialAttributeEncoder19MarkParentAttributeEv@Base 1.4.3+dfsg
 _ZN5draco26SequentialAttributeEncoder20InitPredictionSchemeEPNS_25PredictionSchemeInterfaceE@Base 1.4.3+dfsg
 _ZN5draco26SequentialAttributeEncoder20InitializeStandaloneEPNS_14PointAttributeE@Base 1.4.3+dfsg
 _ZN5draco26SequentialAttributeEncoder23EncodePortableAttributeERKSt6vectorINS_9IndexTypeIjNS_20PointIndex_tag_type_EEESaIS4_EEPNS_13EncoderBufferE@Base 1.4.3+dfsg
 _ZN5draco26SequentialAttributeEncoder34TransformAttributeToPortableFormatERKSt6vectorINS_9IndexTypeIjNS_20PointIndex_tag_type_EEESaIS4_EE@Base 1.4.3+dfsg
 _ZN5draco26SequentialAttributeEncoder35EncodeDataNeededByPortableTransformEPNS_13EncoderBufferE@Base 1.4.3+dfsg
 _ZN5draco26SequentialAttributeEncoder35SetPredictionSchemeParentAttributesEPNS_25PredictionSchemeInterfaceE@Base 1.4.3+dfsg
 _ZN5draco26SequentialAttributeEncoder4InitEPNS_17PointCloudEncoderEi@Base 1.4.3+dfsg
 _ZN5draco26SequentialAttributeEncoderC1Ev@Base 1.4.3+dfsg
 _ZN5draco26SequentialAttributeEncoderC2Ev@Base 1.4.3+dfsg
 _ZN5draco27ComputeBinaryShannonEntropyEjj@Base 1.4.3+dfsg
 _ZN5draco27PointCloudSequentialDecoder18DecodeGeometryDataEv@Base 1.4.3+dfsg
 _ZN5draco27PointCloudSequentialDecoder23CreateAttributesDecoderEi@Base 1.4.3+dfsg
 _ZN5draco27PointCloudSequentialEncoder18EncodeGeometryDataEv@Base 1.4.3+dfsg
 _ZN5draco27PointCloudSequentialEncoder25GenerateAttributesEncoderEi@Base 1.4.3+dfsg
 _ZN5draco27PointCloudSequentialEncoder28ComputeNumberOfEncodedPointsEv@Base 1.4.3+dfsg
 _ZN5draco28AttributeOctahedronTransform13SetParametersEi@Base 1.4.3+dfsg
 _ZN5draco28AttributeOctahedronTransform16DecodeParametersERKNS_14PointAttributeEPNS_13DecoderBufferE@Base 1.4.3+dfsg
 _ZN5draco28AttributeOctahedronTransform17InitFromAttributeERKNS_14PointAttributeE@Base 1.4.3+dfsg
 _ZN5draco28AttributeOctahedronTransform18TransformAttributeERKNS_14PointAttributeERKSt6vectorINS_9IndexTypeIjNS_20PointIndex_tag_type_EEESaIS7_EEPS1_@Base 1.4.3+dfsg
 _ZN5draco28AttributeOctahedronTransform25InverseTransformAttributeERKNS_14PointAttributeEPS1_@Base 1.4.3+dfsg
 (optional)_ZN5draco28PredictionSchemeDeltaDecoderIiNS_37PredictionSchemeWrapDecodingTransformIiiEEE21ComputeOriginalValuesEPKiPiiiPKNS_9IndexTypeIjNS_20PointIndex_tag_type_EEE@Base 1.4.3+dfsg
 (optional)_ZN5draco28PredictionSchemeDeltaDecoderIiNS_62PredictionSchemeNormalOctahedronCanonicalizedDecodingTransformIiEEE21ComputeOriginalValuesEPKiPiiiPKNS_9IndexTypeIjNS_20PointIndex_tag_type_EEE@Base 1.4.3+dfsg
 (optional)_ZN5draco28PredictionSchemeDeltaEncoderIiNS_37PredictionSchemeWrapEncodingTransformIiiEEE23ComputeCorrectionValuesEPKiPiiiPKNS_9IndexTypeIjNS_20PointIndex_tag_type_EEE@Base 1.4.3+dfsg
 (optional)_ZN5draco28PredictionSchemeDeltaEncoderIiNS_62PredictionSchemeNormalOctahedronCanonicalizedEncodingTransformIiEEE23ComputeCorrectionValuesEPKiPiiiPKNS_9IndexTypeIjNS_20PointIndex_tag_type_EEE@Base 1.4.3+dfsg
 _ZN5draco30AttributeQuantizationTransform13SetParametersEiPKfif@Base 1.4.3+dfsg
 _ZN5draco30AttributeQuantizationTransform16DecodeParametersERKNS_14PointAttributeEPNS_13DecoderBufferE@Base 1.4.3+dfsg
 _ZN5draco30AttributeQuantizationTransform17ComputeParametersERKNS_14PointAttributeEi@Base 1.4.3+dfsg
 _ZN5draco30AttributeQuantizationTransform17InitFromAttributeERKNS_14PointAttributeE@Base 1.4.3+dfsg
 _ZN5draco30AttributeQuantizationTransform18TransformAttributeERKNS_14PointAttributeERKSt6vectorINS_9IndexTypeIjNS_20PointIndex_tag_type_EEESaIS7_EEPS1_@Base 1.4.3+dfsg
 _ZN5draco30AttributeQuantizationTransform19IsQuantizationValidEi@Base 1.4.3+dfsg
 _ZN5draco30AttributeQuantizationTransform25InverseTransformAttributeERKNS_14PointAttributeEPS1_@Base 1.4.3+dfsg
 _ZN5draco30CreateCornerTableFromAttributeEPKNS_4MeshENS_17GeometryAttribute4TypeE@Base 1.4.3+dfsg
 _ZN5draco30GetPredictionMethodFromOptionsEiRKNS_18EncoderOptionsBaseIiEE@Base 1.4.3+dfsg
 (optional)_ZN5draco32CreatePredictionSchemeForDecoderIiNS_37PredictionSchemeWrapDecodingTransformIiiEEEESt10unique_ptrINS_23PredictionSchemeDecoderIT_T0_EESt14default_deleteIS7_EENS_22PredictionSchemeMethodEiPKNS_17PointCloudDecoderE@Base 1.4.3+dfsg
 (optional=O3)_ZN5draco32CreatePredictionSchemeForEncoderIiNS_62PredictionSchemeNormalOctahedronCanonicalizedEncodingTransformIiEEEESt10unique_ptrINS_23PredictionSchemeEncoderIT_T0_EESt14default_deleteIS7_EENS_22PredictionSchemeMethodEiPKNS_17PointCloudEncoderERKS6_@Base 1.4.3+dfsg
 _ZN5draco32SequentialNormalAttributeDecoder11StoreValuesEj@Base 1.4.3+dfsg
 _ZN5draco32SequentialNormalAttributeDecoder19DecodeIntegerValuesERKSt6vectorINS_9IndexTypeIjNS_20PointIndex_tag_type_EEESaIS4_EEPNS_13DecoderBufferE@Base 1.4.3+dfsg
 _ZN5draco32SequentialNormalAttributeDecoder35DecodeDataNeededByPortableTransformERKSt6vectorINS_9IndexTypeIjNS_20PointIndex_tag_type_EEESaIS4_EEPNS_13DecoderBufferE@Base 1.4.3+dfsg
 _ZN5draco32SequentialNormalAttributeDecoder4InitEPNS_17PointCloudDecoderEi@Base 1.4.3+dfsg
 _ZN5draco32SequentialNormalAttributeDecoderC1Ev@Base 1.4.3+dfsg
 _ZN5draco32SequentialNormalAttributeDecoderC2Ev@Base 1.4.3+dfsg
 _ZN5draco32SequentialNormalAttributeEncoder13PrepareValuesERKSt6vectorINS_9IndexTypeIjNS_20PointIndex_tag_type_EEESaIS4_EEi@Base 1.4.3+dfsg
 _ZN5draco32SequentialNormalAttributeEncoder35EncodeDataNeededByPortableTransformEPNS_13EncoderBufferE@Base 1.4.3+dfsg
 _ZN5draco32SequentialNormalAttributeEncoder4InitEPNS_17PointCloudEncoderEi@Base 1.4.3+dfsg
 _ZN5draco33DynamicIntegerPointsKdTreeDecoderILi0EE12DecodeNumberEiPj@Base 1.4.3+dfsg
 (optional)_ZN5draco33DynamicIntegerPointsKdTreeDecoderILi0EE12DecodePointsINS_34PointAttributeVectorOutputIteratorIjEEEEbPNS_13DecoderBufferERT_@Base 1.4.3+dfsg
 (optional)_ZN5draco33DynamicIntegerPointsKdTreeDecoderILi0EE14DecodeInternalINS_24ConversionOutputIteratorISt20back_insert_iteratorISt6vectorINS_7VectorDIjLi3EEESaIS7_EEENS_9ConverterEEEEEbjRT_@Base 1.4.3+dfsg
 (optional)_ZN5draco33DynamicIntegerPointsKdTreeDecoderILi0EE14DecodeInternalINS_34PointAttributeVectorOutputIteratorIjEEEEbjRT_@Base 1.4.3+dfsg
 _ZN5draco33DynamicIntegerPointsKdTreeDecoderILi0EE14DecodingStatusC1Ejjj@Base 1.4.3+dfsg
 _ZN5draco33DynamicIntegerPointsKdTreeDecoderILi0EE14DecodingStatusC2Ejjj@Base 1.4.3+dfsg
 _ZN5draco33DynamicIntegerPointsKdTreeDecoderILi0EE7GetAxisEjRKSt6vectorIjSaIjEEj@Base 1.4.3+dfsg
 _ZN5draco33DynamicIntegerPointsKdTreeDecoderILi0EEC1Ej@Base 1.4.3+dfsg
 _ZN5draco33DynamicIntegerPointsKdTreeDecoderILi0EEC2Ej@Base 1.4.3+dfsg
 (optional)_ZN5draco33DynamicIntegerPointsKdTreeDecoderILi1EE12DecodePointsINS_34PointAttributeVectorOutputIteratorIjEEEEbPNS_13DecoderBufferERT_@Base 1.4.3+dfsg
 (optional)_ZN5draco33DynamicIntegerPointsKdTreeDecoderILi1EE14DecodeInternalINS_24ConversionOutputIteratorISt20back_insert_iteratorISt6vectorINS_7VectorDIjLi3EEESaIS7_EEENS_9ConverterEEEEEbjRT_@Base 1.4.3+dfsg
 (optional)_ZN5draco33DynamicIntegerPointsKdTreeDecoderILi1EE14DecodeInternalINS_34PointAttributeVectorOutputIteratorIjEEEEbjRT_@Base 1.4.3+dfsg
 _ZN5draco33DynamicIntegerPointsKdTreeDecoderILi2EE12DecodeNumberEiPj@Base 1.4.3+dfsg
 (optional=O3)_ZN5draco33DynamicIntegerPointsKdTreeDecoderILi2EE12DecodePointsINS_34PointAttributeVectorOutputIteratorIjEEEEbPNS_13DecoderBufferERT_@Base 1.4.3+dfsg
 (optional)_ZN5draco33DynamicIntegerPointsKdTreeDecoderILi2EE14DecodeInternalINS_24ConversionOutputIteratorISt20back_insert_iteratorISt6vectorINS_7VectorDIjLi3EEESaIS7_EEENS_9ConverterEEEEEbjRT_@Base 1.4.3+dfsg
 (optional)_ZN5draco33DynamicIntegerPointsKdTreeDecoderILi2EE14DecodeInternalINS_34PointAttributeVectorOutputIteratorIjEEEEbjRT_@Base 1.4.3+dfsg
 _ZN5draco33DynamicIntegerPointsKdTreeDecoderILi2EE14DecodingStatusC1Ejjj@Base 1.4.3+dfsg
 _ZN5draco33DynamicIntegerPointsKdTreeDecoderILi2EE14DecodingStatusC2Ejjj@Base 1.4.3+dfsg
 _ZN5draco33DynamicIntegerPointsKdTreeDecoderILi2EE7GetAxisEjRKSt6vectorIjSaIjEEj@Base 1.4.3+dfsg
 _ZN5draco33DynamicIntegerPointsKdTreeDecoderILi2EEC1Ej@Base 1.4.3+dfsg
 _ZN5draco33DynamicIntegerPointsKdTreeDecoderILi2EEC2Ej@Base 1.4.3+dfsg
 (optional=O3)_ZN5draco33DynamicIntegerPointsKdTreeDecoderILi3EE12DecodePointsINS_34PointAttributeVectorOutputIteratorIjEEEEbPNS_13DecoderBufferERT_@Base 1.4.3+dfsg
 (optional)_ZN5draco33DynamicIntegerPointsKdTreeDecoderILi3EE14DecodeInternalINS_24ConversionOutputIteratorISt20back_insert_iteratorISt6vectorINS_7VectorDIjLi3EEESaIS7_EEENS_9ConverterEEEEEbjRT_@Base 1.4.3+dfsg
 (optional)_ZN5draco33DynamicIntegerPointsKdTreeDecoderILi3EE14DecodeInternalINS_34PointAttributeVectorOutputIteratorIjEEEEbjRT_@Base 1.4.3+dfsg
 _ZN5draco33DynamicIntegerPointsKdTreeDecoderILi4EE12DecodeNumberEiPj@Base 1.4.3+dfsg
 (optional=O3)_ZN5draco33DynamicIntegerPointsKdTreeDecoderILi4EE12DecodePointsINS_34PointAttributeVectorOutputIteratorIjEEEEbPNS_13DecoderBufferERT_@Base 1.4.3+dfsg
 (optional)_ZN5draco33DynamicIntegerPointsKdTreeDecoderILi4EE14DecodeInternalINS_24ConversionOutputIteratorISt20back_insert_iteratorISt6vectorINS_7VectorDIjLi3EEESaIS7_EEENS_9ConverterEEEEEbjRT_@Base 1.4.3+dfsg
 (optional)_ZN5draco33DynamicIntegerPointsKdTreeDecoderILi4EE14DecodeInternalINS_34PointAttributeVectorOutputIteratorIjEEEEbjRT_@Base 1.4.3+dfsg
 _ZN5draco33DynamicIntegerPointsKdTreeDecoderILi4EE14DecodingStatusC1Ejjj@Base 1.4.3+dfsg
 _ZN5draco33DynamicIntegerPointsKdTreeDecoderILi4EE14DecodingStatusC2Ejjj@Base 1.4.3+dfsg
 _ZN5draco33DynamicIntegerPointsKdTreeDecoderILi4EE7GetAxisEjRKSt6vectorIjSaIjEEj@Base 1.4.3+dfsg
 _ZN5draco33DynamicIntegerPointsKdTreeDecoderILi4EEC1Ej@Base 1.4.3+dfsg
 _ZN5draco33DynamicIntegerPointsKdTreeDecoderILi4EEC2Ej@Base 1.4.3+dfsg
 (optional=O3)_ZN5draco33DynamicIntegerPointsKdTreeDecoderILi5EE12DecodePointsINS_34PointAttributeVectorOutputIteratorIjEEEEbPNS_13DecoderBufferERT_@Base 1.4.3+dfsg
 (optional)_ZN5draco33DynamicIntegerPointsKdTreeDecoderILi5EE14DecodeInternalINS_24ConversionOutputIteratorISt20back_insert_iteratorISt6vectorINS_7VectorDIjLi3EEESaIS7_EEENS_9ConverterEEEEEbjRT_@Base 1.4.3+dfsg
 (optional)_ZN5draco33DynamicIntegerPointsKdTreeDecoderILi5EE14DecodeInternalINS_34PointAttributeVectorOutputIteratorIjEEEEbjRT_@Base 1.4.3+dfsg
 _ZN5draco33DynamicIntegerPointsKdTreeDecoderILi6EE12DecodeNumberEiPj@Base 1.4.3+dfsg
 (optional=O3)_ZN5draco33DynamicIntegerPointsKdTreeDecoderILi6EE12DecodePointsINS_34PointAttributeVectorOutputIteratorIjEEEEbPNS_13DecoderBufferERT_@Base 1.4.3+dfsg
 (optional)_ZN5draco33DynamicIntegerPointsKdTreeDecoderILi6EE14DecodeInternalINS_24ConversionOutputIteratorISt20back_insert_iteratorISt6vectorINS_7VectorDIjLi3EEESaIS7_EEENS_9ConverterEEEEEbjRT_@Base 1.4.3+dfsg
 (optional)_ZN5draco33DynamicIntegerPointsKdTreeDecoderILi6EE14DecodeInternalINS_34PointAttributeVectorOutputIteratorIjEEEEbjRT_@Base 1.4.3+dfsg
 _ZN5draco33DynamicIntegerPointsKdTreeDecoderILi6EE14DecodingStatusC1Ejjj@Base 1.4.3+dfsg
 _ZN5draco33DynamicIntegerPointsKdTreeDecoderILi6EE14DecodingStatusC2Ejjj@Base 1.4.3+dfsg
 _ZN5draco33DynamicIntegerPointsKdTreeDecoderILi6EE7GetAxisEjRKSt6vectorIjSaIjEEj@Base 1.4.3+dfsg
 _ZN5draco33DynamicIntegerPointsKdTreeDecoderILi6EEC1Ej@Base 1.4.3+dfsg
 _ZN5draco33DynamicIntegerPointsKdTreeDecoderILi6EEC2Ej@Base 1.4.3+dfsg
 _ZN5draco33DynamicIntegerPointsKdTreeEncoderILi0EE12EncodeNumberEij@Base 1.4.3+dfsg
 (optional)_ZN5draco33DynamicIntegerPointsKdTreeEncoderILi0EE14EncodeInternalIN9__gnu_cxx17__normal_iteratorIPNS_7VectorDIjLi3EEESt6vectorIS6_SaIS6_EEEEEEvT_SC_@Base 1.4.3+dfsg
 (optional)_ZN5draco33DynamicIntegerPointsKdTreeEncoderILi0EE14EncodeInternalINS_12PointDVectorIjE20PointDVectorIteratorEEEvT_S6_@Base 1.4.3+dfsg
 _ZN5draco33DynamicIntegerPointsKdTreeEncoderILi0EE8SplitterC1Ejj@Base 1.4.3+dfsg
 _ZN5draco33DynamicIntegerPointsKdTreeEncoderILi0EE8SplitterC2Ejj@Base 1.4.3+dfsg
 _ZN5draco33DynamicIntegerPointsKdTreeEncoderILi0EEC1Ej@Base 1.4.3+dfsg
 _ZN5draco33DynamicIntegerPointsKdTreeEncoderILi0EEC2Ej@Base 1.4.3+dfsg
 (optional)_ZN5draco33DynamicIntegerPointsKdTreeEncoderILi1EE14EncodeInternalIN9__gnu_cxx17__normal_iteratorIPNS_7VectorDIjLi3EEESt6vectorIS6_SaIS6_EEEEEEvT_SC_@Base 1.4.3+dfsg
 (optional)_ZN5draco33DynamicIntegerPointsKdTreeEncoderILi1EE14EncodeInternalINS_12PointDVectorIjE20PointDVectorIteratorEEEvT_S6_@Base 1.4.3+dfsg
 _ZN5draco33DynamicIntegerPointsKdTreeEncoderILi2EE12EncodeNumberEij@Base 1.4.3+dfsg
 (optional)_ZN5draco33DynamicIntegerPointsKdTreeEncoderILi2EE14EncodeInternalIN9__gnu_cxx17__normal_iteratorIPNS_7VectorDIjLi3EEESt6vectorIS6_SaIS6_EEEEEEvT_SC_@Base 1.4.3+dfsg
 (optional)_ZN5draco33DynamicIntegerPointsKdTreeEncoderILi2EE14EncodeInternalINS_12PointDVectorIjE20PointDVectorIteratorEEEvT_S6_@Base 1.4.3+dfsg
 _ZN5draco33DynamicIntegerPointsKdTreeEncoderILi2EE8SplitterC1Ejj@Base 1.4.3+dfsg
 _ZN5draco33DynamicIntegerPointsKdTreeEncoderILi2EE8SplitterC2Ejj@Base 1.4.3+dfsg
 _ZN5draco33DynamicIntegerPointsKdTreeEncoderILi2EEC1Ej@Base 1.4.3+dfsg
 _ZN5draco33DynamicIntegerPointsKdTreeEncoderILi2EEC2Ej@Base 1.4.3+dfsg
 (optional)_ZN5draco33DynamicIntegerPointsKdTreeEncoderILi3EE14EncodeInternalIN9__gnu_cxx17__normal_iteratorIPNS_7VectorDIjLi3EEESt6vectorIS6_SaIS6_EEEEEEvT_SC_@Base 1.4.3+dfsg
 (optional)_ZN5draco33DynamicIntegerPointsKdTreeEncoderILi3EE14EncodeInternalINS_12PointDVectorIjE20PointDVectorIteratorEEEvT_S6_@Base 1.4.3+dfsg
 _ZN5draco33DynamicIntegerPointsKdTreeEncoderILi4EE12EncodeNumberEij@Base 1.4.3+dfsg
 (optional)_ZN5draco33DynamicIntegerPointsKdTreeEncoderILi4EE14EncodeInternalIN9__gnu_cxx17__normal_iteratorIPNS_7VectorDIjLi3EEESt6vectorIS6_SaIS6_EEEEEEvT_SC_@Base 1.4.3+dfsg
 (optional)_ZN5draco33DynamicIntegerPointsKdTreeEncoderILi4EE14EncodeInternalINS_12PointDVectorIjE20PointDVectorIteratorEEEvT_S6_@Base 1.4.3+dfsg
 _ZN5draco33DynamicIntegerPointsKdTreeEncoderILi4EE8SplitterC1Ejj@Base 1.4.3+dfsg
 _ZN5draco33DynamicIntegerPointsKdTreeEncoderILi4EE8SplitterC2Ejj@Base 1.4.3+dfsg
 _ZN5draco33DynamicIntegerPointsKdTreeEncoderILi4EEC1Ej@Base 1.4.3+dfsg
 _ZN5draco33DynamicIntegerPointsKdTreeEncoderILi4EEC2Ej@Base 1.4.3+dfsg
 (optional)_ZN5draco33DynamicIntegerPointsKdTreeEncoderILi5EE14EncodeInternalIN9__gnu_cxx17__normal_iteratorIPNS_7VectorDIjLi3EEESt6vectorIS6_SaIS6_EEEEEEvT_SC_@Base 1.4.3+dfsg
 (optional)_ZN5draco33DynamicIntegerPointsKdTreeEncoderILi5EE14EncodeInternalINS_12PointDVectorIjE20PointDVectorIteratorEEEvT_S6_@Base 1.4.3+dfsg
 _ZN5draco33DynamicIntegerPointsKdTreeEncoderILi6EE12EncodeNumberEij@Base 1.4.3+dfsg
 (optional)_ZN5draco33DynamicIntegerPointsKdTreeEncoderILi6EE14EncodeInternalIN9__gnu_cxx17__normal_iteratorIPNS_7VectorDIjLi3EEESt6vectorIS6_SaIS6_EEEEEEvT_SC_@Base 1.4.3+dfsg
 (optional)_ZN5draco33DynamicIntegerPointsKdTreeEncoderILi6EE14EncodeInternalINS_12PointDVectorIjE20PointDVectorIteratorEEEvT_S6_@Base 1.4.3+dfsg
 _ZN5draco33DynamicIntegerPointsKdTreeEncoderILi6EE8SplitterC1Ejj@Base 1.4.3+dfsg
 _ZN5draco33DynamicIntegerPointsKdTreeEncoderILi6EE8SplitterC2Ejj@Base 1.4.3+dfsg
 _ZN5draco33DynamicIntegerPointsKdTreeEncoderILi6EEC1Ej@Base 1.4.3+dfsg
 _ZN5draco33DynamicIntegerPointsKdTreeEncoderILi6EEC2Ej@Base 1.4.3+dfsg
 _ZN5draco33SequentialIntegerAttributeDecoder11StoreValuesEj@Base 1.4.3+dfsg
 _ZN5draco33SequentialIntegerAttributeDecoder12DecodeValuesERKSt6vectorINS_9IndexTypeIjNS_20PointIndex_tag_type_EEESaIS4_EEPNS_13DecoderBufferE@Base 1.4.3+dfsg
 (optional=O3)_ZN5draco33SequentialIntegerAttributeDecoder16StoreTypedValuesIaEEvj@Base 1.4.3+dfsg
 (optional=O3)_ZN5draco33SequentialIntegerAttributeDecoder16StoreTypedValuesIhEEvj@Base 1.4.3+dfsg
 (optional=O3)_ZN5draco33SequentialIntegerAttributeDecoder16StoreTypedValuesIiEEvj@Base 1.4.3+dfsg
 (optional=O3)_ZN5draco33SequentialIntegerAttributeDecoder16StoreTypedValuesIjEEvj@Base 1.4.3+dfsg
 (optional=O3)_ZN5draco33SequentialIntegerAttributeDecoder16StoreTypedValuesIsEEvj@Base 1.4.3+dfsg
 (optional=O3)_ZN5draco33SequentialIntegerAttributeDecoder16StoreTypedValuesItEEvj@Base 1.4.3+dfsg
 _ZN5draco33SequentialIntegerAttributeDecoder19DecodeIntegerValuesERKSt6vectorINS_9IndexTypeIjNS_20PointIndex_tag_type_EEESaIS4_EEPNS_13DecoderBufferE@Base 1.4.3+dfsg
 _ZN5draco33SequentialIntegerAttributeDecoder24PreparePortableAttributeEii@Base 1.4.3+dfsg
 _ZN5draco33SequentialIntegerAttributeDecoder25CreateIntPredictionSchemeENS_22PredictionSchemeMethodENS_29PredictionSchemeTransformTypeE@Base 1.4.3+dfsg
 _ZN5draco33SequentialIntegerAttributeDecoder34TransformAttributeToOriginalFormatERKSt6vectorINS_9IndexTypeIjNS_20PointIndex_tag_type_EEESaIS4_EE@Base 1.4.3+dfsg
 _ZN5draco33SequentialIntegerAttributeDecoder4InitEPNS_17PointCloudDecoderEi@Base 1.4.3+dfsg
 _ZN5draco33SequentialIntegerAttributeDecoderC1Ev@Base 1.4.3+dfsg
 _ZN5draco33SequentialIntegerAttributeDecoderC2Ev@Base 1.4.3+dfsg
 _ZN5draco33SequentialIntegerAttributeEncoder12EncodeValuesERKSt6vectorINS_9IndexTypeIjNS_20PointIndex_tag_type_EEESaIS4_EEPNS_13EncoderBufferE@Base 1.4.3+dfsg
 _ZN5draco33SequentialIntegerAttributeEncoder13PrepareValuesERKSt6vectorINS_9IndexTypeIjNS_20PointIndex_tag_type_EEESaIS4_EEi@Base 1.4.3+dfsg
 _ZN5draco33SequentialIntegerAttributeEncoder24PreparePortableAttributeEiii@Base 1.4.3+dfsg
 _ZN5draco33SequentialIntegerAttributeEncoder25CreateIntPredictionSchemeENS_22PredictionSchemeMethodE@Base 1.4.3+dfsg
 _ZN5draco33SequentialIntegerAttributeEncoder34TransformAttributeToPortableFormatERKSt6vectorINS_9IndexTypeIjNS_20PointIndex_tag_type_EEESaIS4_EE@Base 1.4.3+dfsg
 _ZN5draco33SequentialIntegerAttributeEncoder4InitEPNS_17PointCloudEncoderEi@Base 1.4.3+dfsg
 _ZN5draco33SequentialIntegerAttributeEncoderC1Ev@Base 1.4.3+dfsg
 _ZN5draco33SequentialIntegerAttributeEncoderC2Ev@Base 1.4.3+dfsg
 _ZN5draco33SetSymbolEncodingCompressionLevelEPNS_7OptionsEi@Base 1.4.3+dfsg
 _ZN5draco34CreateCornerTableFromAllAttributesEPKNS_4MeshE@Base 1.4.3+dfsg
 _ZN5draco37SequentialAttributeDecodersController16DecodeAttributesEPNS_13DecoderBufferE@Base 1.4.3+dfsg
 _ZN5draco37SequentialAttributeDecodersController23CreateSequentialDecoderEh@Base 1.4.3+dfsg
 _ZN5draco37SequentialAttributeDecodersController24DecodePortableAttributesEPNS_13DecoderBufferE@Base 1.4.3+dfsg
 _ZN5draco37SequentialAttributeDecodersController27DecodeAttributesDecoderDataEPNS_13DecoderBufferE@Base 1.4.3+dfsg
 _ZN5draco37SequentialAttributeDecodersController35TransformAttributesToOriginalFormatEv@Base 1.4.3+dfsg
 _ZN5draco37SequentialAttributeDecodersController36DecodeDataNeededByPortableTransformsEPNS_13DecoderBufferE@Base 1.4.3+dfsg
 _ZN5draco37SequentialAttributeDecodersControllerC1ESt10unique_ptrINS_15PointsSequencerESt14default_deleteIS2_EE@Base 1.4.3+dfsg
 _ZN5draco37SequentialAttributeDecodersControllerC2ESt10unique_ptrINS_15PointsSequencerESt14default_deleteIS2_EE@Base 1.4.3+dfsg
 _ZN5draco37SequentialAttributeEncodersController16EncodeAttributesEPNS_13EncoderBufferE@Base 1.4.3+dfsg
 _ZN5draco37SequentialAttributeEncodersController23CreateSequentialEncoderEi@Base 1.4.3+dfsg
 _ZN5draco37SequentialAttributeEncodersController24CreateSequentialEncodersEv@Base 1.4.3+dfsg
 _ZN5draco37SequentialAttributeEncodersController24EncodePortableAttributesEPNS_13EncoderBufferE@Base 1.4.3+dfsg
 _ZN5draco37SequentialAttributeEncodersController27EncodeAttributesEncoderDataEPNS_13EncoderBufferE@Base 1.4.3+dfsg
 _ZN5draco37SequentialAttributeEncodersController35TransformAttributesToPortableFormatEv@Base 1.4.3+dfsg
 _ZN5draco37SequentialAttributeEncodersController36EncodeDataNeededByPortableTransformsEPNS_13EncoderBufferE@Base 1.4.3+dfsg
 _ZN5draco37SequentialAttributeEncodersController4InitEPNS_17PointCloudEncoderEPKNS_10PointCloudE@Base 1.4.3+dfsg
 _ZN5draco37SequentialAttributeEncodersControllerC1ESt10unique_ptrINS_15PointsSequencerESt14default_deleteIS2_EE@Base 1.4.3+dfsg
 _ZN5draco37SequentialAttributeEncodersControllerC1ESt10unique_ptrINS_15PointsSequencerESt14default_deleteIS2_EEi@Base 1.4.3+dfsg
 _ZN5draco37SequentialAttributeEncodersControllerC2ESt10unique_ptrINS_15PointsSequencerESt14default_deleteIS2_EE@Base 1.4.3+dfsg
 _ZN5draco37SequentialAttributeEncodersControllerC2ESt10unique_ptrINS_15PointsSequencerESt14default_deleteIS2_EEi@Base 1.4.3+dfsg
 _ZN5draco38CreateCornerTableFromPositionAttributeEPKNS_4MeshE@Base 1.4.3+dfsg
 _ZN5draco38SequentialQuantizationAttributeDecoder11StoreValuesEj@Base 1.4.3+dfsg
 _ZN5draco38SequentialQuantizationAttributeDecoder16DequantizeValuesEj@Base 1.4.3+dfsg
 _ZN5draco38SequentialQuantizationAttributeDecoder19DecodeIntegerValuesERKSt6vectorINS_9IndexTypeIjNS_20PointIndex_tag_type_EEESaIS4_EEPNS_13DecoderBufferE@Base 1.4.3+dfsg
 _ZN5draco38SequentialQuantizationAttributeDecoder23DecodeQuantizedDataInfoEv@Base 1.4.3+dfsg
 _ZN5draco38SequentialQuantizationAttributeDecoder35DecodeDataNeededByPortableTransformERKSt6vectorINS_9IndexTypeIjNS_20PointIndex_tag_type_EEESaIS4_EEPNS_13DecoderBufferE@Base 1.4.3+dfsg
 _ZN5draco38SequentialQuantizationAttributeDecoder4InitEPNS_17PointCloudDecoderEi@Base 1.4.3+dfsg
 _ZN5draco38SequentialQuantizationAttributeDecoderC1Ev@Base 1.4.3+dfsg
 _ZN5draco38SequentialQuantizationAttributeDecoderC2Ev@Base 1.4.3+dfsg
 _ZN5draco38SequentialQuantizationAttributeEncoder13PrepareValuesERKSt6vectorINS_9IndexTypeIjNS_20PointIndex_tag_type_EEESaIS4_EEi@Base 1.4.3+dfsg
 _ZN5draco38SequentialQuantizationAttributeEncoder35EncodeDataNeededByPortableTransformEPNS_13EncoderBufferE@Base 1.4.3+dfsg
 _ZN5draco38SequentialQuantizationAttributeEncoder4InitEPNS_17PointCloudEncoderEi@Base 1.4.3+dfsg
 _ZN5draco38SequentialQuantizationAttributeEncoderC1Ev@Base 1.4.3+dfsg
 _ZN5draco38SequentialQuantizationAttributeEncoderC2Ev@Base 1.4.3+dfsg
 (optional)_ZN5draco40MeshPredictionSchemeParallelogramDecoderIiNS_37PredictionSchemeWrapDecodingTransformIiiEENS_24MeshPredictionSchemeDataINS_11CornerTableEEEE21ComputeOriginalValuesEPKiPiiiPKNS_9IndexTypeIjNS_20PointIndex_tag_type_EEE@Base 1.4.3+dfsg
 (optional)_ZN5draco40MeshPredictionSchemeParallelogramDecoderIiNS_37PredictionSchemeWrapDecodingTransformIiiEENS_24MeshPredictionSchemeDataINS_24MeshAttributeCornerTableEEEE21ComputeOriginalValuesEPKiPiiiPKNS_9IndexTypeIjNS_20PointIndex_tag_type_EEE@Base 1.4.3+dfsg
 (optional)_ZN5draco40MeshPredictionSchemeParallelogramEncoderIiNS_37PredictionSchemeWrapEncodingTransformIiiEENS_24MeshPredictionSchemeDataINS_11CornerTableEEEE23ComputeCorrectionValuesEPKiPiiiPKNS_9IndexTypeIjNS_20PointIndex_tag_type_EEE@Base 1.4.3+dfsg
 (optional)_ZN5draco40MeshPredictionSchemeParallelogramEncoderIiNS_37PredictionSchemeWrapEncodingTransformIiiEENS_24MeshPredictionSchemeDataINS_24MeshAttributeCornerTableEEEE23ComputeCorrectionValuesEPKiPiiiPKNS_9IndexTypeIjNS_20PointIndex_tag_type_EEE@Base 1.4.3+dfsg
 (optional)_ZN5draco40MeshPredictionSchemeParallelogramEncoderIiNS_62PredictionSchemeNormalOctahedronCanonicalizedEncodingTransformIiEENS_24MeshPredictionSchemeDataINS_11CornerTableEEEE23ComputeCorrectionValuesEPKiPiiiPKNS_9IndexTypeIjNS_20PointIndex_tag_type_EEE@Base 1.4.3+dfsg
 (optional)_ZN5draco40MeshPredictionSchemeParallelogramEncoderIiNS_62PredictionSchemeNormalOctahedronCanonicalizedEncodingTransformIiEENS_24MeshPredictionSchemeDataINS_24MeshAttributeCornerTableEEEE23ComputeCorrectionValuesEPKiPiiiPKNS_9IndexTypeIjNS_20PointIndex_tag_type_EEE@Base 1.4.3+dfsg
 (optional)_ZN5draco42MeshPredictionSchemeGeometricNormalDecoderIiNS_37PredictionSchemeWrapDecodingTransformIiiEENS_24MeshPredictionSchemeDataINS_11CornerTableEEEE20DecodePredictionDataEPNS_13DecoderBufferE@Base 1.4.3+dfsg
 (optional)_ZN5draco42MeshPredictionSchemeGeometricNormalDecoderIiNS_37PredictionSchemeWrapDecodingTransformIiiEENS_24MeshPredictionSchemeDataINS_11CornerTableEEEE21ComputeOriginalValuesEPKiPiiiPKNS_9IndexTypeIjNS_20PointIndex_tag_type_EEE@Base 1.4.3+dfsg
 (optional)_ZN5draco42MeshPredictionSchemeGeometricNormalDecoderIiNS_37PredictionSchemeWrapDecodingTransformIiiEENS_24MeshPredictionSchemeDataINS_24MeshAttributeCornerTableEEEE20DecodePredictionDataEPNS_13DecoderBufferE@Base 1.4.3+dfsg
 (optional)_ZN5draco42MeshPredictionSchemeGeometricNormalDecoderIiNS_37PredictionSchemeWrapDecodingTransformIiiEENS_24MeshPredictionSchemeDataINS_24MeshAttributeCornerTableEEEE21ComputeOriginalValuesEPKiPiiiPKNS_9IndexTypeIjNS_20PointIndex_tag_type_EEE@Base 1.4.3+dfsg
 (optional)_ZN5draco42MeshPredictionSchemeGeometricNormalDecoderIiNS_62PredictionSchemeNormalOctahedronCanonicalizedDecodingTransformIiEENS_24MeshPredictionSchemeDataINS_11CornerTableEEEE20DecodePredictionDataEPNS_13DecoderBufferE@Base 1.4.3+dfsg
 (optional)_ZN5draco42MeshPredictionSchemeGeometricNormalDecoderIiNS_62PredictionSchemeNormalOctahedronCanonicalizedDecodingTransformIiEENS_24MeshPredictionSchemeDataINS_11CornerTableEEEE21ComputeOriginalValuesEPKiPiiiPKNS_9IndexTypeIjNS_20PointIndex_tag_type_EEE@Base 1.4.3+dfsg
 (optional)_ZN5draco42MeshPredictionSchemeGeometricNormalDecoderIiNS_62PredictionSchemeNormalOctahedronCanonicalizedDecodingTransformIiEENS_24MeshPredictionSchemeDataINS_24MeshAttributeCornerTableEEEE20DecodePredictionDataEPNS_13DecoderBufferE@Base 1.4.3+dfsg
 (optional)_ZN5draco42MeshPredictionSchemeGeometricNormalDecoderIiNS_62PredictionSchemeNormalOctahedronCanonicalizedDecodingTransformIiEENS_24MeshPredictionSchemeDataINS_24MeshAttributeCornerTableEEEE21ComputeOriginalValuesEPKiPiiiPKNS_9IndexTypeIjNS_20PointIndex_tag_type_EEE@Base 1.4.3+dfsg
 (optional)_ZN5draco42MeshPredictionSchemeGeometricNormalEncoderIiNS_37PredictionSchemeWrapEncodingTransformIiiEENS_24MeshPredictionSchemeDataINS_11CornerTableEEEE20EncodePredictionDataEPNS_13EncoderBufferE@Base 1.4.3+dfsg
 (optional)_ZN5draco42MeshPredictionSchemeGeometricNormalEncoderIiNS_37PredictionSchemeWrapEncodingTransformIiiEENS_24MeshPredictionSchemeDataINS_11CornerTableEEEE23ComputeCorrectionValuesEPKiPiiiPKNS_9IndexTypeIjNS_20PointIndex_tag_type_EEE@Base 1.4.3+dfsg
 (optional)_ZN5draco42MeshPredictionSchemeGeometricNormalEncoderIiNS_37PredictionSchemeWrapEncodingTransformIiiEENS_24MeshPredictionSchemeDataINS_24MeshAttributeCornerTableEEEE20EncodePredictionDataEPNS_13EncoderBufferE@Base 1.4.3+dfsg
 (optional)_ZN5draco42MeshPredictionSchemeGeometricNormalEncoderIiNS_37PredictionSchemeWrapEncodingTransformIiiEENS_24MeshPredictionSchemeDataINS_24MeshAttributeCornerTableEEEE23ComputeCorrectionValuesEPKiPiiiPKNS_9IndexTypeIjNS_20PointIndex_tag_type_EEE@Base 1.4.3+dfsg
 (optional)_ZN5draco42MeshPredictionSchemeGeometricNormalEncoderIiNS_62PredictionSchemeNormalOctahedronCanonicalizedEncodingTransformIiEENS_24MeshPredictionSchemeDataINS_11CornerTableEEEE20EncodePredictionDataEPNS_13EncoderBufferE@Base 1.4.3+dfsg
 (optional)_ZN5draco42MeshPredictionSchemeGeometricNormalEncoderIiNS_62PredictionSchemeNormalOctahedronCanonicalizedEncodingTransformIiEENS_24MeshPredictionSchemeDataINS_11CornerTableEEEE23ComputeCorrectionValuesEPKiPiiiPKNS_9IndexTypeIjNS_20PointIndex_tag_type_EEE@Base 1.4.3+dfsg
 (optional)_ZN5draco42MeshPredictionSchemeGeometricNormalEncoderIiNS_62PredictionSchemeNormalOctahedronCanonicalizedEncodingTransformIiEENS_24MeshPredictionSchemeDataINS_24MeshAttributeCornerTableEEEE20EncodePredictionDataEPNS_13EncoderBufferE@Base 1.4.3+dfsg
 (optional)_ZN5draco42MeshPredictionSchemeGeometricNormalEncoderIiNS_62PredictionSchemeNormalOctahedronCanonicalizedEncodingTransformIiEENS_24MeshPredictionSchemeDataINS_24MeshAttributeCornerTableEEEE23ComputeCorrectionValuesEPKiPiiiPKNS_9IndexTypeIjNS_20PointIndex_tag_type_EEE@Base 1.4.3+dfsg
 (optional)_ZN5draco44MeshPredictionSchemeTexCoordsPortableDecoderIiNS_37PredictionSchemeWrapDecodingTransformIiiEENS_24MeshPredictionSchemeDataINS_11CornerTableEEEE20DecodePredictionDataEPNS_13DecoderBufferE@Base 1.4.3+dfsg
 (optional)_ZN5draco44MeshPredictionSchemeTexCoordsPortableDecoderIiNS_37PredictionSchemeWrapDecodingTransformIiiEENS_24MeshPredictionSchemeDataINS_11CornerTableEEEE21ComputeOriginalValuesEPKiPiiiPKNS_9IndexTypeIjNS_20PointIndex_tag_type_EEE@Base 1.4.3+dfsg
 (optional)_ZN5draco44MeshPredictionSchemeTexCoordsPortableDecoderIiNS_37PredictionSchemeWrapDecodingTransformIiiEENS_24MeshPredictionSchemeDataINS_24MeshAttributeCornerTableEEEE20DecodePredictionDataEPNS_13DecoderBufferE@Base 1.4.3+dfsg
 (optional)_ZN5draco44MeshPredictionSchemeTexCoordsPortableDecoderIiNS_37PredictionSchemeWrapDecodingTransformIiiEENS_24MeshPredictionSchemeDataINS_24MeshAttributeCornerTableEEEE21ComputeOriginalValuesEPKiPiiiPKNS_9IndexTypeIjNS_20PointIndex_tag_type_EEE@Base 1.4.3+dfsg
 (optional)_ZN5draco44MeshPredictionSchemeTexCoordsPortableEncoderIiNS_37PredictionSchemeWrapEncodingTransformIiiEENS_24MeshPredictionSchemeDataINS_11CornerTableEEEE20EncodePredictionDataEPNS_13EncoderBufferE@Base 1.4.3+dfsg
 (optional)_ZN5draco44MeshPredictionSchemeTexCoordsPortableEncoderIiNS_37PredictionSchemeWrapEncodingTransformIiiEENS_24MeshPredictionSchemeDataINS_11CornerTableEEEE23ComputeCorrectionValuesEPKiPiiiPKNS_9IndexTypeIjNS_20PointIndex_tag_type_EEE@Base 1.4.3+dfsg
 (optional)_ZN5draco44MeshPredictionSchemeTexCoordsPortableEncoderIiNS_37PredictionSchemeWrapEncodingTransformIiiEENS_24MeshPredictionSchemeDataINS_24MeshAttributeCornerTableEEEE20EncodePredictionDataEPNS_13EncoderBufferE@Base 1.4.3+dfsg
 (optional)_ZN5draco44MeshPredictionSchemeTexCoordsPortableEncoderIiNS_37PredictionSchemeWrapEncodingTransformIiiEENS_24MeshPredictionSchemeDataINS_24MeshAttributeCornerTableEEEE23ComputeCorrectionValuesEPKiPiiiPKNS_9IndexTypeIjNS_20PointIndex_tag_type_EEE@Base 1.4.3+dfsg
 (optional)_ZN5draco44MeshPredictionSchemeTexCoordsPortableEncoderIiNS_62PredictionSchemeNormalOctahedronCanonicalizedEncodingTransformIiEENS_24MeshPredictionSchemeDataINS_11CornerTableEEEE20EncodePredictionDataEPNS_13EncoderBufferE@Base 1.4.3+dfsg
 (optional)_ZN5draco44MeshPredictionSchemeTexCoordsPortableEncoderIiNS_62PredictionSchemeNormalOctahedronCanonicalizedEncodingTransformIiEENS_24MeshPredictionSchemeDataINS_11CornerTableEEEE23ComputeCorrectionValuesEPKiPiiiPKNS_9IndexTypeIjNS_20PointIndex_tag_type_EEE@Base 1.4.3+dfsg
 (optional)_ZN5draco44MeshPredictionSchemeTexCoordsPortableEncoderIiNS_62PredictionSchemeNormalOctahedronCanonicalizedEncodingTransformIiEENS_24MeshPredictionSchemeDataINS_24MeshAttributeCornerTableEEEE20EncodePredictionDataEPNS_13EncoderBufferE@Base 1.4.3+dfsg
 (optional)_ZN5draco44MeshPredictionSchemeTexCoordsPortableEncoderIiNS_62PredictionSchemeNormalOctahedronCanonicalizedEncodingTransformIiEENS_24MeshPredictionSchemeDataINS_24MeshAttributeCornerTableEEEE23ComputeCorrectionValuesEPKiPiiiPKNS_9IndexTypeIjNS_20PointIndex_tag_type_EEE@Base 1.4.3+dfsg
 (optional)_ZN5draco46MeshPredictionSchemeTexCoordsPortablePredictorIiNS_24MeshPredictionSchemeDataINS_11CornerTableEEEE21ComputePredictedValueILb0EEEbNS_9IndexTypeIjNS_21CornerIndex_tag_type_EEEPKii@Base 1.4.3+dfsg
 (optional)_ZN5draco46MeshPredictionSchemeTexCoordsPortablePredictorIiNS_24MeshPredictionSchemeDataINS_11CornerTableEEEE21ComputePredictedValueILb1EEEbNS_9IndexTypeIjNS_21CornerIndex_tag_type_EEEPKii@Base 1.4.3+dfsg
 (optional)_ZN5draco46MeshPredictionSchemeTexCoordsPortablePredictorIiNS_24MeshPredictionSchemeDataINS_24MeshAttributeCornerTableEEEE21ComputePredictedValueILb0EEEbNS_9IndexTypeIjNS_21CornerIndex_tag_type_EEEPKii@Base 1.4.3+dfsg
 (optional)_ZN5draco46MeshPredictionSchemeTexCoordsPortablePredictorIiNS_24MeshPredictionSchemeDataINS_24MeshAttributeCornerTableEEEE21ComputePredictedValueILb1EEEbNS_9IndexTypeIjNS_21CornerIndex_tag_type_EEEPKii@Base 1.4.3+dfsg
 _ZN5draco4MeshC1Ev@Base 1.4.3+dfsg
 _ZN5draco4MeshC2Ev@Base 1.4.3+dfsg
 (optional)_ZN5draco56MeshPredictionSchemeConstrainedMultiParallelogramDecoderIiNS_37PredictionSchemeWrapDecodingTransformIiiEENS_24MeshPredictionSchemeDataINS_11CornerTableEEEE20DecodePredictionDataEPNS_13DecoderBufferE@Base 1.4.3+dfsg
 (optional)_ZN5draco56MeshPredictionSchemeConstrainedMultiParallelogramDecoderIiNS_37PredictionSchemeWrapDecodingTransformIiiEENS_24MeshPredictionSchemeDataINS_11CornerTableEEEE21ComputeOriginalValuesEPKiPiiiPKNS_9IndexTypeIjNS_20PointIndex_tag_type_EEE@Base 1.4.3+dfsg
 (optional)_ZN5draco56MeshPredictionSchemeConstrainedMultiParallelogramDecoderIiNS_37PredictionSchemeWrapDecodingTransformIiiEENS_24MeshPredictionSchemeDataINS_24MeshAttributeCornerTableEEEE20DecodePredictionDataEPNS_13DecoderBufferE@Base 1.4.3+dfsg
 (optional)_ZN5draco56MeshPredictionSchemeConstrainedMultiParallelogramDecoderIiNS_37PredictionSchemeWrapDecodingTransformIiiEENS_24MeshPredictionSchemeDataINS_24MeshAttributeCornerTableEEEE21ComputeOriginalValuesEPKiPiiiPKNS_9IndexTypeIjNS_20PointIndex_tag_type_EEE@Base 1.4.3+dfsg
 (optional)_ZN5draco56MeshPredictionSchemeConstrainedMultiParallelogramEncoderIiNS_37PredictionSchemeWrapEncodingTransformIiiEENS_24MeshPredictionSchemeDataINS_11CornerTableEEEE20EncodePredictionDataEPNS_13EncoderBufferE@Base 1.4.3+dfsg
 (optional)_ZN5draco56MeshPredictionSchemeConstrainedMultiParallelogramEncoderIiNS_37PredictionSchemeWrapEncodingTransformIiiEENS_24MeshPredictionSchemeDataINS_11CornerTableEEEE23ComputeCorrectionValuesEPKiPiiiPKNS_9IndexTypeIjNS_20PointIndex_tag_type_EEE@Base 1.4.3+dfsg
 (optional)_ZN5draco56MeshPredictionSchemeConstrainedMultiParallelogramEncoderIiNS_37PredictionSchemeWrapEncodingTransformIiiEENS_24MeshPredictionSchemeDataINS_24MeshAttributeCornerTableEEEE20EncodePredictionDataEPNS_13EncoderBufferE@Base 1.4.3+dfsg
 (optional)_ZN5draco56MeshPredictionSchemeConstrainedMultiParallelogramEncoderIiNS_37PredictionSchemeWrapEncodingTransformIiiEENS_24MeshPredictionSchemeDataINS_24MeshAttributeCornerTableEEEE23ComputeCorrectionValuesEPKiPiiiPKNS_9IndexTypeIjNS_20PointIndex_tag_type_EEE@Base 1.4.3+dfsg
 (optional)_ZN5draco56MeshPredictionSchemeConstrainedMultiParallelogramEncoderIiNS_62PredictionSchemeNormalOctahedronCanonicalizedEncodingTransformIiEENS_24MeshPredictionSchemeDataINS_11CornerTableEEEE20EncodePredictionDataEPNS_13EncoderBufferE@Base 1.4.3+dfsg
 (optional)_ZN5draco56MeshPredictionSchemeConstrainedMultiParallelogramEncoderIiNS_62PredictionSchemeNormalOctahedronCanonicalizedEncodingTransformIiEENS_24MeshPredictionSchemeDataINS_11CornerTableEEEE23ComputeCorrectionValuesEPKiPiiiPKNS_9IndexTypeIjNS_20PointIndex_tag_type_EEE@Base 1.4.3+dfsg
 (optional)_ZN5draco56MeshPredictionSchemeConstrainedMultiParallelogramEncoderIiNS_62PredictionSchemeNormalOctahedronCanonicalizedEncodingTransformIiEENS_24MeshPredictionSchemeDataINS_24MeshAttributeCornerTableEEEE20EncodePredictionDataEPNS_13EncoderBufferE@Base 1.4.3+dfsg
 (optional)_ZN5draco56MeshPredictionSchemeConstrainedMultiParallelogramEncoderIiNS_62PredictionSchemeNormalOctahedronCanonicalizedEncodingTransformIiEENS_24MeshPredictionSchemeDataINS_24MeshAttributeCornerTableEEEE23ComputeCorrectionValuesEPKiPiiiPKNS_9IndexTypeIjNS_20PointIndex_tag_type_EEE@Base 1.4.3+dfsg
 _ZN5draco6parser10ParseFloatEPNS_13DecoderBufferEPf@Base 1.4.3+dfsg
 _ZN5draco6parser11ParseStringEPNS_13DecoderBufferEPNSt7__cxx1112basic_stringIcSt11char_traitsIcESaIcEEE@Base 1.4.3+dfsg
 _ZN5draco6parser12GetSignValueEc@Base 1.4.3+dfsg
 _ZN5draco6parser14ParseSignedIntEPNS_13DecoderBufferEPi@Base 1.4.3+dfsg
 _ZN5draco6parser14PeekWhitespaceEPNS_13DecoderBufferEPb@Base 1.4.3+dfsg
 _ZN5draco6parser14SkipCharactersEPNS_13DecoderBufferEPKc@Base 1.4.3+dfsg
 _ZN5draco6parser14SkipWhitespaceEPNS_13DecoderBufferE@Base 1.4.3+dfsg
 _ZN5draco6parser16ParseUnsignedIntEPNS_13DecoderBufferEPj@Base 1.4.3+dfsg
 _ZN5draco6parser26ParseLineIntoDecoderBufferEPNS_13DecoderBufferE@Base 1.4.3+dfsg
 _ZN5draco6parser7ToLowerERKNSt7__cxx1112basic_stringIcSt11char_traitsIcESaIcEEE@Base 1.4.3+dfsg
 _ZN5draco6parser8SkipLineEPNS_13DecoderBufferE@Base 1.4.3+dfsg
 _ZN5draco6parser9ParseLineEPNS_13DecoderBufferEPNSt7__cxx1112basic_stringIcSt11char_traitsIcESaIcEEE@Base 1.4.3+dfsg
 _ZN5draco7Decoder20DecodeMeshFromBufferEPNS_13DecoderBufferE@Base 1.4.3+dfsg
 _ZN5draco7Decoder22DecodeBufferToGeometryEPNS_13DecoderBufferEPNS_10PointCloudE@Base 1.4.3+dfsg
 _ZN5draco7Decoder22DecodeBufferToGeometryEPNS_13DecoderBufferEPNS_4MeshE@Base 1.4.3+dfsg
 _ZN5draco7Decoder22GetEncodedGeometryTypeEPNS_13DecoderBufferE@Base 1.4.3+dfsg
 _ZN5draco7Decoder25SetSkipAttributeTransformENS_17GeometryAttribute4TypeE@Base 1.4.3+dfsg
 _ZN5draco7Decoder26DecodePointCloudFromBufferEPNS_13DecoderBufferE@Base 1.4.3+dfsg
 _ZN5draco7Encoder15SetSpeedOptionsEii@Base 1.4.3+dfsg
 _ZN5draco7Encoder17SetEncodingMethodEi@Base 1.4.3+dfsg
 _ZN5draco7Encoder18EncodeMeshToBufferERKNS_4MeshEPNS_13EncoderBufferE@Base 1.4.3+dfsg
 _ZN5draco7Encoder24EncodePointCloudToBufferERKNS_10PointCloudEPNS_13EncoderBufferE@Base 1.4.3+dfsg
 _ZN5draco7Encoder24SetAttributeQuantizationENS_17GeometryAttribute4TypeEi@Base 1.4.3+dfsg
 _ZN5draco7Encoder28SetAttributePredictionSchemeENS_17GeometryAttribute4TypeEi@Base 1.4.3+dfsg
 _ZN5draco7Encoder32SetAttributeExplicitQuantizationENS_17GeometryAttribute4TypeEiiPKff@Base 1.4.3+dfsg
 _ZN5draco7Encoder5ResetERKNS_18EncoderOptionsBaseINS_17GeometryAttribute4TypeEEE@Base 1.4.3+dfsg
 _ZN5draco7Encoder5ResetEv@Base 1.4.3+dfsg
 _ZN5draco7EncoderC1Ev@Base 1.4.3+dfsg
 _ZN5draco7EncoderC2Ev@Base 1.4.3+dfsg
 _ZN5draco7Options15MergeAndReplaceERKS0_@Base 1.4.3+dfsg
 _ZN5draco7Options6SetIntERKNSt7__cxx1112basic_stringIcSt11char_traitsIcESaIcEEEi@Base 1.4.3+dfsg
 _ZN5draco7Options7SetBoolERKNSt7__cxx1112basic_stringIcSt11char_traitsIcESaIcEEEb@Base 1.4.3+dfsg
 _ZN5draco7Options8SetFloatERKNSt7__cxx1112basic_stringIcSt11char_traitsIcESaIcEEEf@Base 1.4.3+dfsg
 _ZN5draco7Options9SetStringERKNSt7__cxx1112basic_stringIcSt11char_traitsIcESaIcEEES8_@Base 1.4.3+dfsg
 (optional)_ZN5draco7Options9SetVectorIfEEvRKNSt7__cxx1112basic_stringIcSt11char_traitsIcESaIcEEEPKT_i@Base 1.4.3+dfsg
 _ZN5draco7OptionsC1Ev@Base 1.4.3+dfsg
 _ZN5draco7OptionsC2Ev@Base 1.4.3+dfsg
 _ZN5draco8Metadata11AddEntryIntERKNSt7__cxx1112basic_stringIcSt11char_traitsIcESaIcEEEi@Base 1.4.3+dfsg
 _ZN5draco8Metadata11RemoveEntryERKNSt7__cxx1112basic_stringIcSt11char_traitsIcESaIcEEE@Base 1.4.3+dfsg
 _ZN5draco8Metadata12sub_metadataERKNSt7__cxx1112basic_stringIcSt11char_traitsIcESaIcEEE@Base 1.4.3+dfsg
 _ZN5draco8Metadata14AddEntryBinaryERKNSt7__cxx1112basic_stringIcSt11char_traitsIcESaIcEEERKSt6vectorIhSaIhEE@Base 1.4.3+dfsg
 _ZN5draco8Metadata14AddEntryDoubleERKNSt7__cxx1112basic_stringIcSt11char_traitsIcESaIcEEEd@Base 1.4.3+dfsg
 _ZN5draco8Metadata14AddEntryStringERKNSt7__cxx1112basic_stringIcSt11char_traitsIcESaIcEEES8_@Base 1.4.3+dfsg
 _ZN5draco8Metadata14AddSubMetadataERKNSt7__cxx1112basic_stringIcSt11char_traitsIcESaIcEEESt10unique_ptrIS0_St14default_deleteIS0_EE@Base 1.4.3+dfsg
 _ZN5draco8Metadata16AddEntryIntArrayERKNSt7__cxx1112basic_stringIcSt11char_traitsIcESaIcEEERKSt6vectorIiSaIiEE@Base 1.4.3+dfsg
 _ZN5draco8Metadata19AddEntryDoubleArrayERKNSt7__cxx1112basic_stringIcSt11char_traitsIcESaIcEEERKSt6vectorIdSaIdEE@Base 1.4.3+dfsg
 _ZN5draco8MetadataC1ERKS0_@Base 1.4.3+dfsg
 _ZN5draco8MetadataC2ERKS0_@Base 1.4.3+dfsg
 _ZN5draco9PlyReader10SplitWordsERKNSt7__cxx1112basic_stringIcSt11char_traitsIcESaIcEEE@Base 1.4.3+dfsg
 _ZN5draco9PlyReader11ParseHeaderEPNS_13DecoderBufferE@Base 1.4.3+dfsg
 _ZN5draco9PlyReader12ParseElementEPNS_13DecoderBufferE@Base 1.4.3+dfsg
 _ZN5draco9PlyReader13ParsePropertyEPNS_13DecoderBufferE@Base 1.4.3+dfsg
 _ZN5draco9PlyReader14ParseEndHeaderEPNS_13DecoderBufferE@Base 1.4.3+dfsg
 _ZN5draco9PlyReader16ParseElementDataEPNS_13DecoderBufferEi@Base 1.4.3+dfsg
 _ZN5draco9PlyReader19ParsePropertiesDataEPNS_13DecoderBufferE@Base 1.4.3+dfsg
 _ZN5draco9PlyReader21ParseElementDataAsciiEPNS_13DecoderBufferEi@Base 1.4.3+dfsg
 _ZN5draco9PlyReader4ReadEPNS_13DecoderBufferE@Base 1.4.3+dfsg
 _ZN5draco9PlyReaderC1Ev@Base 1.4.3+dfsg
 _ZN5draco9PlyReaderC2Ev@Base 1.4.3+dfsg
 _ZN5draco9Quantizer4InitEf@Base 1.4.3+dfsg
 _ZN5draco9Quantizer4InitEfi@Base 1.4.3+dfsg
 _ZN5draco9QuantizerC1Ev@Base 1.4.3+dfsg
 _ZN5draco9QuantizerC2Ev@Base 1.4.3+dfsg
 _ZN5draco9SplitPathERKNSt7__cxx1112basic_stringIcSt11char_traitsIcESaIcEEEPS5_S8_@Base 1.4.3+dfsg
 _ZNK5draco10EntryValue8GetValueINSt7__cxx1112basic_stringIcSt11char_traitsIcESaIcEEEEEbPT_@Base 1.4.3+dfsg
 _ZNK5draco10PointCloud15CreateAttributeERKNS_17GeometryAttributeEbj@Base 1.4.3+dfsg
 _ZNK5draco10PointCloud17GetNamedAttributeENS_17GeometryAttribute4TypeE@Base 1.4.3+dfsg
 _ZNK5draco10PointCloud17GetNamedAttributeENS_17GeometryAttribute4TypeEi@Base 1.4.3+dfsg
 _ZNK5draco10PointCloud18ComputeBoundingBoxEv@Base 1.4.3+dfsg
 _ZNK5draco10PointCloud18NumNamedAttributesENS_17GeometryAttribute4TypeE@Base 1.4.3+dfsg
 _ZNK5draco10PointCloud19GetNamedAttributeIdENS_17GeometryAttribute4TypeE@Base 1.4.3+dfsg
 _ZNK5draco10PointCloud19GetNamedAttributeIdENS_17GeometryAttribute4TypeEi@Base 1.4.3+dfsg
 _ZNK5draco10PointCloud22GetAttributeByUniqueIdEj@Base 1.4.3+dfsg
 _ZNK5draco10PointCloud24GetAttributeIdByUniqueIdEj@Base 1.4.3+dfsg
 _ZNK5draco10PointCloud27GetNamedAttributeByUniqueIdENS_17GeometryAttribute4TypeEj@Base 1.4.3+dfsg
 _ZNK5draco11CornerTable13IsDegeneratedENS_9IndexTypeIjNS_19FaceIndex_tag_type_EEE@Base 1.4.3+dfsg
 _ZNK5draco11CornerTable16ConfidentValenceENS_9IndexTypeIjNS_21VertexIndex_tag_type_EEE@Base 1.4.3+dfsg
 _ZNK5draco11CornerTable7ValenceENS_9IndexTypeIjNS_21VertexIndex_tag_type_EEE@Base 1.4.3+dfsg
 (optional)_ZNK5draco12DracoOptionsINS_17GeometryAttribute4TypeEE16GetAttributeBoolERKS2_RKNSt7__cxx1112basic_stringIcSt11char_traitsIcESaIcEEEb@Base 1.4.3+dfsg
 (optional)_ZNK5draco12DracoOptionsIiE15GetAttributeIntERKiRKNSt7__cxx1112basic_stringIcSt11char_traitsIcESaIcEEEi@Base 1.4.3+dfsg
 (optional)_ZNK5draco12DracoOptionsIiE20IsAttributeOptionSetERKiRKNSt7__cxx1112basic_stringIcSt11char_traitsIcESaIcEEE@Base 1.4.3+dfsg
 _ZNK5draco16GeometryMetadata33GetAttributeMetadataByStringEntryERKNSt7__cxx1112basic_stringIcSt11char_traitsIcESaIcEEES8_@Base 1.4.3+dfsg
 _ZNK5draco17GeometryAttributeeqERKS0_@Base 1.4.3+dfsg
 _ZNK5draco17MeshAreEquivalent13FaceIndexLessclENS_9IndexTypeIjNS_19FaceIndex_tag_type_EEES4_@Base 1.4.3+dfsg
 _ZNK5draco18AttributeTransform19TransferToAttributeEPNS_14PointAttributeE@Base 1.4.3+dfsg
 _ZNK5draco24MeshAttributeCornerTable16ConfidentValenceENS_9IndexTypeIjNS_21VertexIndex_tag_type_EEE@Base 1.4.3+dfsg
 _ZNK5draco24MeshAttributeCornerTable7ValenceENS_9IndexTypeIjNS_21VertexIndex_tag_type_EEE@Base 1.4.3+dfsg
 _ZNK5draco26MeshEdgebreakerDecoderImplINS_31MeshEdgebreakerTraversalDecoderEE10GetDecoderEv@Base 1.4.3+dfsg
 _ZNK5draco26MeshEdgebreakerDecoderImplINS_31MeshEdgebreakerTraversalDecoderEE13IsFaceVisitedENS_9IndexTypeIjNS_21CornerIndex_tag_type_EEE@Base 1.4.3+dfsg
 _ZNK5draco26MeshEdgebreakerDecoderImplINS_31MeshEdgebreakerTraversalDecoderEE14GetCornerTableEv@Base 1.4.3+dfsg
 _ZNK5draco26MeshEdgebreakerDecoderImplINS_31MeshEdgebreakerTraversalDecoderEE23GetAttributeCornerTableEi@Base 1.4.3+dfsg
 _ZNK5draco26MeshEdgebreakerDecoderImplINS_31MeshEdgebreakerTraversalDecoderEE24GetAttributeEncodingDataEi@Base 1.4.3+dfsg
 _ZNK5draco26MeshEdgebreakerDecoderImplINS_38MeshEdgebreakerTraversalValenceDecoderEE10GetDecoderEv@Base 1.4.3+dfsg
 _ZNK5draco26MeshEdgebreakerDecoderImplINS_38MeshEdgebreakerTraversalValenceDecoderEE13IsFaceVisitedENS_9IndexTypeIjNS_21CornerIndex_tag_type_EEE@Base 1.4.3+dfsg
 _ZNK5draco26MeshEdgebreakerDecoderImplINS_38MeshEdgebreakerTraversalValenceDecoderEE14GetCornerTableEv@Base 1.4.3+dfsg
 _ZNK5draco26MeshEdgebreakerDecoderImplINS_38MeshEdgebreakerTraversalValenceDecoderEE23GetAttributeCornerTableEi@Base 1.4.3+dfsg
 _ZNK5draco26MeshEdgebreakerDecoderImplINS_38MeshEdgebreakerTraversalValenceDecoderEE24GetAttributeEncodingDataEi@Base 1.4.3+dfsg
 _ZNK5draco26MeshEdgebreakerEncoderImplINS_31MeshEdgebreakerTraversalEncoderEE10GetEncoderEv@Base 1.4.3+dfsg
 _ZNK5draco26MeshEdgebreakerEncoderImplINS_31MeshEdgebreakerTraversalEncoderEE13GetLeftCornerENS_9IndexTypeIjNS_21CornerIndex_tag_type_EEE@Base 1.4.3+dfsg
 _ZNK5draco26MeshEdgebreakerEncoderImplINS_31MeshEdgebreakerTraversalEncoderEE13IsFaceEncodedENS_9IndexTypeIjNS_19FaceIndex_tag_type_EEE@Base 1.4.3+dfsg
 _ZNK5draco26MeshEdgebreakerEncoderImplINS_31MeshEdgebreakerTraversalEncoderEE14GetCornerTableEv@Base 1.4.3+dfsg
 _ZNK5draco26MeshEdgebreakerEncoderImplINS_31MeshEdgebreakerTraversalEncoderEE14GetRightCornerENS_9IndexTypeIjNS_21CornerIndex_tag_type_EEE@Base 1.4.3+dfsg
 _ZNK5draco26MeshEdgebreakerEncoderImplINS_31MeshEdgebreakerTraversalEncoderEE15IsVertexVisitedENS_9IndexTypeIjNS_21VertexIndex_tag_type_EEE@Base 1.4.3+dfsg
 _ZNK5draco26MeshEdgebreakerEncoderImplINS_31MeshEdgebreakerTraversalEncoderEE17IsLeftFaceVisitedENS_9IndexTypeIjNS_21CornerIndex_tag_type_EEE@Base 1.4.3+dfsg
 _ZNK5draco26MeshEdgebreakerEncoderImplINS_31MeshEdgebreakerTraversalEncoderEE18IsRightFaceVisitedENS_9IndexTypeIjNS_21CornerIndex_tag_type_EEE@Base 1.4.3+dfsg
 _ZNK5draco26MeshEdgebreakerEncoderImplINS_31MeshEdgebreakerTraversalEncoderEE22GetSplitSymbolIdOnFaceEi@Base 1.4.3+dfsg
 _ZNK5draco26MeshEdgebreakerEncoderImplINS_31MeshEdgebreakerTraversalEncoderEE23GetAttributeCornerTableEi@Base 1.4.3+dfsg
 _ZNK5draco26MeshEdgebreakerEncoderImplINS_31MeshEdgebreakerTraversalEncoderEE24GetAttributeEncodingDataEi@Base 1.4.3+dfsg
 _ZNK5draco26MeshEdgebreakerEncoderImplINS_31MeshEdgebreakerTraversalEncoderEE25FindInitFaceConfigurationENS_9IndexTypeIjNS_19FaceIndex_tag_type_EEEPNS3_IjNS_21CornerIndex_tag_type_EEE@Base 1.4.3+dfsg
 _ZNK5draco26MeshEdgebreakerEncoderImplINS_38MeshEdgebreakerTraversalValenceEncoderEE10GetEncoderEv@Base 1.4.3+dfsg
 _ZNK5draco26MeshEdgebreakerEncoderImplINS_38MeshEdgebreakerTraversalValenceEncoderEE13GetLeftCornerENS_9IndexTypeIjNS_21CornerIndex_tag_type_EEE@Base 1.4.3+dfsg
 _ZNK5draco26MeshEdgebreakerEncoderImplINS_38MeshEdgebreakerTraversalValenceEncoderEE13IsFaceEncodedENS_9IndexTypeIjNS_19FaceIndex_tag_type_EEE@Base 1.4.3+dfsg
 _ZNK5draco26MeshEdgebreakerEncoderImplINS_38MeshEdgebreakerTraversalValenceEncoderEE14GetCornerTableEv@Base 1.4.3+dfsg
 _ZNK5draco26MeshEdgebreakerEncoderImplINS_38MeshEdgebreakerTraversalValenceEncoderEE14GetRightCornerENS_9IndexTypeIjNS_21CornerIndex_tag_type_EEE@Base 1.4.3+dfsg
 _ZNK5draco26MeshEdgebreakerEncoderImplINS_38MeshEdgebreakerTraversalValenceEncoderEE15IsVertexVisitedENS_9IndexTypeIjNS_21VertexIndex_tag_type_EEE@Base 1.4.3+dfsg
 _ZNK5draco26MeshEdgebreakerEncoderImplINS_38MeshEdgebreakerTraversalValenceEncoderEE17IsLeftFaceVisitedENS_9IndexTypeIjNS_21CornerIndex_tag_type_EEE@Base 1.4.3+dfsg
 _ZNK5draco26MeshEdgebreakerEncoderImplINS_38MeshEdgebreakerTraversalValenceEncoderEE18IsRightFaceVisitedENS_9IndexTypeIjNS_21CornerIndex_tag_type_EEE@Base 1.4.3+dfsg
 _ZNK5draco26MeshEdgebreakerEncoderImplINS_38MeshEdgebreakerTraversalValenceEncoderEE22GetSplitSymbolIdOnFaceEi@Base 1.4.3+dfsg
 _ZNK5draco26MeshEdgebreakerEncoderImplINS_38MeshEdgebreakerTraversalValenceEncoderEE23GetAttributeCornerTableEi@Base 1.4.3+dfsg
 _ZNK5draco26MeshEdgebreakerEncoderImplINS_38MeshEdgebreakerTraversalValenceEncoderEE24GetAttributeEncodingDataEi@Base 1.4.3+dfsg
 _ZNK5draco26MeshEdgebreakerEncoderImplINS_38MeshEdgebreakerTraversalValenceEncoderEE25FindInitFaceConfigurationENS_9IndexTypeIjNS_19FaceIndex_tag_type_EEEPNS3_IjNS_21CornerIndex_tag_type_EEE@Base 1.4.3+dfsg
 _ZNK5draco26MeshEdgebreakerEncoderImplINS_41MeshEdgebreakerTraversalPredictiveEncoderEE10GetEncoderEv@Base 1.4.3+dfsg
 _ZNK5draco26MeshEdgebreakerEncoderImplINS_41MeshEdgebreakerTraversalPredictiveEncoderEE13GetLeftCornerENS_9IndexTypeIjNS_21CornerIndex_tag_type_EEE@Base 1.4.3+dfsg
 _ZNK5draco26MeshEdgebreakerEncoderImplINS_41MeshEdgebreakerTraversalPredictiveEncoderEE13IsFaceEncodedENS_9IndexTypeIjNS_19FaceIndex_tag_type_EEE@Base 1.4.3+dfsg
 _ZNK5draco26MeshEdgebreakerEncoderImplINS_41MeshEdgebreakerTraversalPredictiveEncoderEE14GetCornerTableEv@Base 1.4.3+dfsg
 _ZNK5draco26MeshEdgebreakerEncoderImplINS_41MeshEdgebreakerTraversalPredictiveEncoderEE14GetRightCornerENS_9IndexTypeIjNS_21CornerIndex_tag_type_EEE@Base 1.4.3+dfsg
 _ZNK5draco26MeshEdgebreakerEncoderImplINS_41MeshEdgebreakerTraversalPredictiveEncoderEE15IsVertexVisitedENS_9IndexTypeIjNS_21VertexIndex_tag_type_EEE@Base 1.4.3+dfsg
 _ZNK5draco26MeshEdgebreakerEncoderImplINS_41MeshEdgebreakerTraversalPredictiveEncoderEE17IsLeftFaceVisitedENS_9IndexTypeIjNS_21CornerIndex_tag_type_EEE@Base 1.4.3+dfsg
 _ZNK5draco26MeshEdgebreakerEncoderImplINS_41MeshEdgebreakerTraversalPredictiveEncoderEE18IsRightFaceVisitedENS_9IndexTypeIjNS_21CornerIndex_tag_type_EEE@Base 1.4.3+dfsg
 _ZNK5draco26MeshEdgebreakerEncoderImplINS_41MeshEdgebreakerTraversalPredictiveEncoderEE22GetSplitSymbolIdOnFaceEi@Base 1.4.3+dfsg
 _ZNK5draco26MeshEdgebreakerEncoderImplINS_41MeshEdgebreakerTraversalPredictiveEncoderEE23GetAttributeCornerTableEi@Base 1.4.3+dfsg
 _ZNK5draco26MeshEdgebreakerEncoderImplINS_41MeshEdgebreakerTraversalPredictiveEncoderEE24GetAttributeEncodingDataEi@Base 1.4.3+dfsg
 _ZNK5draco26MeshEdgebreakerEncoderImplINS_41MeshEdgebreakerTraversalPredictiveEncoderEE25FindInitFaceConfigurationENS_9IndexTypeIjNS_19FaceIndex_tag_type_EEEPNS3_IjNS_21CornerIndex_tag_type_EEE@Base 1.4.3+dfsg
 _ZNK5draco28AttributeOctahedronTransform16EncodeParametersEPNS_13EncoderBufferE@Base 1.4.3+dfsg
 _ZNK5draco28AttributeOctahedronTransform25GeneratePortableAttributeERKNS_14PointAttributeERKSt6vectorINS_9IndexTypeIjNS_20PointIndex_tag_type_EEESaIS7_EEiPS1_@Base 1.4.3+dfsg
 _ZNK5draco28AttributeOctahedronTransform28CopyToAttributeTransformDataEPNS_22AttributeTransformDataE@Base 1.4.3+dfsg
 _ZNK5draco30AttributeQuantizationTransform16EncodeParametersEPNS_13EncoderBufferE@Base 1.4.3+dfsg
 _ZNK5draco30AttributeQuantizationTransform25GeneratePortableAttributeERKNS_14PointAttributeERKSt6vectorINS_9IndexTypeIjNS_20PointIndex_tag_type_EEESaIS7_EEiPS1_@Base 1.4.3+dfsg
 _ZNK5draco30AttributeQuantizationTransform25GeneratePortableAttributeERKNS_14PointAttributeEiPS1_@Base 1.4.3+dfsg
 _ZNK5draco30AttributeQuantizationTransform28CopyToAttributeTransformDataEPNS_22AttributeTransformDataE@Base 1.4.3+dfsg
 _ZNK5draco33DynamicIntegerPointsKdTreeDecoderILi0EE9dimensionEv@Base 1.4.3+dfsg
 _ZNK5draco33DynamicIntegerPointsKdTreeDecoderILi2EE9dimensionEv@Base 1.4.3+dfsg
 _ZNK5draco33DynamicIntegerPointsKdTreeDecoderILi4EE9dimensionEv@Base 1.4.3+dfsg
 _ZNK5draco33DynamicIntegerPointsKdTreeDecoderILi6EE9dimensionEv@Base 1.4.3+dfsg
 _ZNK5draco33DynamicIntegerPointsKdTreeEncoderILi0EE9dimensionEv@Base 1.4.3+dfsg
 _ZNK5draco33DynamicIntegerPointsKdTreeEncoderILi2EE9dimensionEv@Base 1.4.3+dfsg
 _ZNK5draco33DynamicIntegerPointsKdTreeEncoderILi4EE9dimensionEv@Base 1.4.3+dfsg
 _ZNK5draco33DynamicIntegerPointsKdTreeEncoderILi6EE9dimensionEv@Base 1.4.3+dfsg
 _ZNK5draco7Encoder26CreateExpertEncoderOptionsERKNS_10PointCloudE@Base 1.4.3+dfsg
 _ZNK5draco7Options6GetIntERKNSt7__cxx1112basic_stringIcSt11char_traitsIcESaIcEEE@Base 1.4.3+dfsg
 _ZNK5draco7Options6GetIntERKNSt7__cxx1112basic_stringIcSt11char_traitsIcESaIcEEEi@Base 1.4.3+dfsg
 _ZNK5draco7Options7GetBoolERKNSt7__cxx1112basic_stringIcSt11char_traitsIcESaIcEEE@Base 1.4.3+dfsg
 _ZNK5draco7Options7GetBoolERKNSt7__cxx1112basic_stringIcSt11char_traitsIcESaIcEEEb@Base 1.4.3+dfsg
 _ZNK5draco7Options8GetFloatERKNSt7__cxx1112basic_stringIcSt11char_traitsIcESaIcEEE@Base 1.4.3+dfsg
 _ZNK5draco7Options8GetFloatERKNSt7__cxx1112basic_stringIcSt11char_traitsIcESaIcEEEf@Base 1.4.3+dfsg
 _ZNK5draco7Options9GetStringERKNSt7__cxx1112basic_stringIcSt11char_traitsIcESaIcEEE@Base 1.4.3+dfsg
 _ZNK5draco7Options9GetStringERKNSt7__cxx1112basic_stringIcSt11char_traitsIcESaIcEEES8_@Base 1.4.3+dfsg
 (optional)_ZNK5draco7Options9GetVectorIfEEbRKNSt7__cxx1112basic_stringIcSt11char_traitsIcESaIcEEEiPT_@Base 1.4.3+dfsg
 _ZNK5draco8Metadata11GetEntryIntERKNSt7__cxx1112basic_stringIcSt11char_traitsIcESaIcEEEPi@Base 1.4.3+dfsg
 _ZNK5draco8Metadata14GetEntryBinaryERKNSt7__cxx1112basic_stringIcSt11char_traitsIcESaIcEEEPSt6vectorIhSaIhEE@Base 1.4.3+dfsg
 _ZNK5draco8Metadata14GetEntryDoubleERKNSt7__cxx1112basic_stringIcSt11char_traitsIcESaIcEEEPd@Base 1.4.3+dfsg
 _ZNK5draco8Metadata14GetEntryStringERKNSt7__cxx1112basic_stringIcSt11char_traitsIcESaIcEEEPS6_@Base 1.4.3+dfsg
 _ZNK5draco8Metadata14GetSubMetadataERKNSt7__cxx1112basic_stringIcSt11char_traitsIcESaIcEEE@Base 1.4.3+dfsg
 _ZNK5draco8Metadata16GetEntryIntArrayERKNSt7__cxx1112basic_stringIcSt11char_traitsIcESaIcEEEPSt6vectorIiSaIiEE@Base 1.4.3+dfsg
 _ZNK5draco8Metadata19GetEntryDoubleArrayERKNSt7__cxx1112basic_stringIcSt11char_traitsIcESaIcEEEPSt6vectorIdSaIdEE@Base 1.4.3+dfsg
 _ZNK5draco9PlyReader21GetDataTypeFromStringERKNSt7__cxx1112basic_stringIcSt11char_traitsIcESaIcEEE@Base 1.4.3+dfsg
 _ZTIN5draco10PointCloudE@Base 1.4.3+dfsg
 _ZTIN5draco11EncoderBaseINS_18EncoderOptionsBaseINS_17GeometryAttribute4TypeEEEEE@Base 1.4.3+dfsg
 _ZTIN5draco11EncoderBaseINS_18EncoderOptionsBaseIiEEEE@Base 1.4.3+dfsg
 _ZTIN5draco11MeshDecoderE@Base 1.4.3+dfsg
 _ZTIN5draco11MeshEncoderE@Base 1.4.3+dfsg
 (optional)_ZTIN5draco13ExpertEncoderE@Base 1.4.3+dfsg
 _ZTIN5draco13TraverserBaseINS_11CornerTableENS_36MeshAttributeIndicesEncodingObserverIS1_EEEE@Base 1.4.3+dfsg
 _ZTIN5draco13TraverserBaseINS_24MeshAttributeCornerTableENS_36MeshAttributeIndicesEncodingObserverIS1_EEEE@Base 1.4.3+dfsg
 (optional)_ZTIN5draco15LinearSequencerE@Base 1.4.3+dfsg
 _ZTIN5draco15PointsSequencerE@Base 1.4.3+dfsg
 _ZTIN5draco15StdioFileReaderE@Base 1.4.3+dfsg
 _ZTIN5draco15StdioFileWriterE@Base 1.4.3+dfsg
 _ZTIN5draco17AttributesDecoderE@Base 1.4.3+dfsg
 _ZTIN5draco17AttributesEncoderE@Base 1.4.3+dfsg
 (optional)_ZTIN5draco17KeyframeAnimationE@Base 1.4.3+dfsg
 _ZTIN5draco17PointCloudDecoderE@Base 1.4.3+dfsg
 _ZTIN5draco17PointCloudEncoderE@Base 1.4.3+dfsg
 _ZTIN5draco18AttributeTransformE@Base 1.4.3+dfsg
 (optional)_ZTIN5draco19DepthFirstTraverserINS_11CornerTableENS_36MeshAttributeIndicesEncodingObserverIS1_EEEE@Base 1.4.3+dfsg
 (optional)_ZTIN5draco19DepthFirstTraverserINS_24MeshAttributeCornerTableENS_36MeshAttributeIndicesEncodingObserverIS1_EEEE@Base 1.4.3+dfsg
 _ZTIN5draco19FileReaderInterfaceE@Base 1.4.3+dfsg
 _ZTIN5draco19FileWriterInterfaceE@Base 1.4.3+dfsg
 _ZTIN5draco21MeshSequentialDecoderE@Base 1.4.3+dfsg
 _ZTIN5draco21MeshSequentialEncoderE@Base 1.4.3+dfsg
 _ZTIN5draco22MeshEdgebreakerDecoderE@Base 1.4.3+dfsg
 _ZTIN5draco22MeshEdgebreakerEncoderE@Base 1.4.3+dfsg
 (optional)_ZTIN5draco22MeshTraversalSequencerINS_19DepthFirstTraverserINS_11CornerTableENS_36MeshAttributeIndicesEncodingObserverIS2_EEEEEE@Base 1.4.3+dfsg
 (optional)_ZTIN5draco22MeshTraversalSequencerINS_19DepthFirstTraverserINS_24MeshAttributeCornerTableENS_36MeshAttributeIndicesEncodingObserverIS2_EEEEEE@Base 1.4.3+dfsg
 (optional)_ZTIN5draco22MeshTraversalSequencerINS_28MaxPredictionDegreeTraverserINS_11CornerTableENS_36MeshAttributeIndicesEncodingObserverIS2_EEEEEE@Base 1.4.3+dfsg
 _ZTIN5draco23KdTreeAttributesDecoderE@Base 1.4.3+dfsg
 _ZTIN5draco23KdTreeAttributesEncoderE@Base 1.4.3+dfsg
 _ZTIN5draco23PointCloudKdTreeDecoderE@Base 1.4.3+dfsg
 _ZTIN5draco23PointCloudKdTreeEncoderE@Base 1.4.3+dfsg
 _ZTIN5draco23PredictionSchemeDecoderIiNS_37PredictionSchemeWrapDecodingTransformIiiEEEE@Base 1.4.3+dfsg
 _ZTIN5draco23PredictionSchemeDecoderIiNS_62PredictionSchemeNormalOctahedronCanonicalizedDecodingTransformIiEEEE@Base 1.4.3+dfsg
 _ZTIN5draco23PredictionSchemeEncoderIiNS_37PredictionSchemeWrapEncodingTransformIiiEEEE@Base 1.4.3+dfsg
 _ZTIN5draco23PredictionSchemeEncoderIiNS_62PredictionSchemeNormalOctahedronCanonicalizedEncodingTransformIiEEEE@Base 1.4.3+dfsg
 (optional)_ZTIN5draco24KeyframeAnimationEncoderE@Base 1.4.3+dfsg
 _ZTIN5draco25PredictionSchemeInterfaceE@Base 1.4.3+dfsg
 _ZTIN5draco26AttributesDecoderInterfaceE@Base 1.4.3+dfsg
 _ZTIN5draco26MeshEdgebreakerDecoderImplINS_31MeshEdgebreakerTraversalDecoderEEE@Base 1.4.3+dfsg
 _ZTIN5draco26MeshEdgebreakerDecoderImplINS_38MeshEdgebreakerTraversalValenceDecoderEEE@Base 1.4.3+dfsg
 _ZTIN5draco26MeshEdgebreakerEncoderImplINS_31MeshEdgebreakerTraversalEncoderEEE@Base 1.4.3+dfsg
 _ZTIN5draco26MeshEdgebreakerEncoderImplINS_38MeshEdgebreakerTraversalValenceEncoderEEE@Base 1.4.3+dfsg
 _ZTIN5draco26MeshEdgebreakerEncoderImplINS_41MeshEdgebreakerTraversalPredictiveEncoderEEE@Base 1.4.3+dfsg
 _ZTIN5draco26SequentialAttributeDecoderE@Base 1.4.3+dfsg
 _ZTIN5draco26SequentialAttributeEncoderE@Base 1.4.3+dfsg
 _ZTIN5draco27MeshPredictionSchemeDecoderIiNS_37PredictionSchemeWrapDecodingTransformIiiEENS_24MeshPredictionSchemeDataINS_11CornerTableEEEEE@Base 1.4.3+dfsg
 _ZTIN5draco27MeshPredictionSchemeDecoderIiNS_37PredictionSchemeWrapDecodingTransformIiiEENS_24MeshPredictionSchemeDataINS_24MeshAttributeCornerTableEEEEE@Base 1.4.3+dfsg
 _ZTIN5draco27MeshPredictionSchemeDecoderIiNS_62PredictionSchemeNormalOctahedronCanonicalizedDecodingTransformIiEENS_24MeshPredictionSchemeDataINS_11CornerTableEEEEE@Base 1.4.3+dfsg
 _ZTIN5draco27MeshPredictionSchemeDecoderIiNS_62PredictionSchemeNormalOctahedronCanonicalizedDecodingTransformIiEENS_24MeshPredictionSchemeDataINS_24MeshAttributeCornerTableEEEEE@Base 1.4.3+dfsg
 _ZTIN5draco27MeshPredictionSchemeEncoderIiNS_37PredictionSchemeWrapEncodingTransformIiiEENS_24MeshPredictionSchemeDataINS_11CornerTableEEEEE@Base 1.4.3+dfsg
 _ZTIN5draco27MeshPredictionSchemeEncoderIiNS_37PredictionSchemeWrapEncodingTransformIiiEENS_24MeshPredictionSchemeDataINS_24MeshAttributeCornerTableEEEEE@Base 1.4.3+dfsg
 _ZTIN5draco27MeshPredictionSchemeEncoderIiNS_62PredictionSchemeNormalOctahedronCanonicalizedEncodingTransformIiEENS_24MeshPredictionSchemeDataINS_11CornerTableEEEEE@Base 1.4.3+dfsg
 _ZTIN5draco27MeshPredictionSchemeEncoderIiNS_62PredictionSchemeNormalOctahedronCanonicalizedEncodingTransformIiEENS_24MeshPredictionSchemeDataINS_24MeshAttributeCornerTableEEEEE@Base 1.4.3+dfsg
 _ZTIN5draco27PointCloudSequentialDecoderE@Base 1.4.3+dfsg
 _ZTIN5draco27PointCloudSequentialEncoderE@Base 1.4.3+dfsg
 _ZTIN5draco28AttributeOctahedronTransformE@Base 1.4.3+dfsg
 (optional)_ZTIN5draco28MaxPredictionDegreeTraverserINS_11CornerTableENS_36MeshAttributeIndicesEncodingObserverIS1_EEEE@Base 1.4.3+dfsg
 (optional)_ZTIN5draco28PredictionSchemeDeltaDecoderIiNS_37PredictionSchemeWrapDecodingTransformIiiEEEE@Base 1.4.3+dfsg
 (optional)_ZTIN5draco28PredictionSchemeDeltaDecoderIiNS_62PredictionSchemeNormalOctahedronCanonicalizedDecodingTransformIiEEEE@Base 1.4.3+dfsg
 (optional)_ZTIN5draco28PredictionSchemeDeltaEncoderIiNS_37PredictionSchemeWrapEncodingTransformIiiEEEE@Base 1.4.3+dfsg
 (optional)_ZTIN5draco28PredictionSchemeDeltaEncoderIiNS_62PredictionSchemeNormalOctahedronCanonicalizedEncodingTransformIiEEEE@Base 1.4.3+dfsg
 _ZTIN5draco30AttributeQuantizationTransformE@Base 1.4.3+dfsg
 _ZTIN5draco32PredictionSchemeDecoderInterfaceE@Base 1.4.3+dfsg
 _ZTIN5draco32PredictionSchemeEncoderInterfaceE@Base 1.4.3+dfsg
 _ZTIN5draco32SequentialNormalAttributeDecoderE@Base 1.4.3+dfsg
 _ZTIN5draco32SequentialNormalAttributeEncoderE@Base 1.4.3+dfsg
 _ZTIN5draco33SequentialIntegerAttributeDecoderE@Base 1.4.3+dfsg
 _ZTIN5draco33SequentialIntegerAttributeEncoderE@Base 1.4.3+dfsg
 _ZTIN5draco35MeshEdgebreakerDecoderImplInterfaceE@Base 1.4.3+dfsg
 _ZTIN5draco35MeshEdgebreakerEncoderImplInterfaceE@Base 1.4.3+dfsg
 _ZTIN5draco37PredictionSchemeTypedDecoderInterfaceIiiEE@Base 1.4.3+dfsg
 _ZTIN5draco37PredictionSchemeTypedEncoderInterfaceIiiEE@Base 1.4.3+dfsg
 _ZTIN5draco37SequentialAttributeDecodersControllerE@Base 1.4.3+dfsg
 _ZTIN5draco37SequentialAttributeEncodersControllerE@Base 1.4.3+dfsg
 _ZTIN5draco38SequentialQuantizationAttributeDecoderE@Base 1.4.3+dfsg
 _ZTIN5draco38SequentialQuantizationAttributeEncoderE@Base 1.4.3+dfsg
 (optional)_ZTIN5draco40MeshPredictionSchemeParallelogramDecoderIiNS_37PredictionSchemeWrapDecodingTransformIiiEENS_24MeshPredictionSchemeDataINS_11CornerTableEEEEE@Base 1.4.3+dfsg
 (optional)_ZTIN5draco40MeshPredictionSchemeParallelogramDecoderIiNS_37PredictionSchemeWrapDecodingTransformIiiEENS_24MeshPredictionSchemeDataINS_24MeshAttributeCornerTableEEEEE@Base 1.4.3+dfsg
 (optional)_ZTIN5draco40MeshPredictionSchemeParallelogramEncoderIiNS_37PredictionSchemeWrapEncodingTransformIiiEENS_24MeshPredictionSchemeDataINS_11CornerTableEEEEE@Base 1.4.3+dfsg
 (optional)_ZTIN5draco40MeshPredictionSchemeParallelogramEncoderIiNS_37PredictionSchemeWrapEncodingTransformIiiEENS_24MeshPredictionSchemeDataINS_24MeshAttributeCornerTableEEEEE@Base 1.4.3+dfsg
 (optional)_ZTIN5draco40MeshPredictionSchemeParallelogramEncoderIiNS_62PredictionSchemeNormalOctahedronCanonicalizedEncodingTransformIiEENS_24MeshPredictionSchemeDataINS_11CornerTableEEEEE@Base 1.4.3+dfsg
 (optional)_ZTIN5draco40MeshPredictionSchemeParallelogramEncoderIiNS_62PredictionSchemeNormalOctahedronCanonicalizedEncodingTransformIiEENS_24MeshPredictionSchemeDataINS_24MeshAttributeCornerTableEEEEE@Base 1.4.3+dfsg
 (optional)_ZTIN5draco42MeshPredictionSchemeGeometricNormalDecoderIiNS_37PredictionSchemeWrapDecodingTransformIiiEENS_24MeshPredictionSchemeDataINS_11CornerTableEEEEE@Base 1.4.3+dfsg
 (optional)_ZTIN5draco42MeshPredictionSchemeGeometricNormalDecoderIiNS_37PredictionSchemeWrapDecodingTransformIiiEENS_24MeshPredictionSchemeDataINS_24MeshAttributeCornerTableEEEEE@Base 1.4.3+dfsg
 (optional)_ZTIN5draco42MeshPredictionSchemeGeometricNormalDecoderIiNS_62PredictionSchemeNormalOctahedronCanonicalizedDecodingTransformIiEENS_24MeshPredictionSchemeDataINS_11CornerTableEEEEE@Base 1.4.3+dfsg
 (optional)_ZTIN5draco42MeshPredictionSchemeGeometricNormalDecoderIiNS_62PredictionSchemeNormalOctahedronCanonicalizedDecodingTransformIiEENS_24MeshPredictionSchemeDataINS_24MeshAttributeCornerTableEEEEE@Base 1.4.3+dfsg
 (optional)_ZTIN5draco42MeshPredictionSchemeGeometricNormalEncoderIiNS_37PredictionSchemeWrapEncodingTransformIiiEENS_24MeshPredictionSchemeDataINS_11CornerTableEEEEE@Base 1.4.3+dfsg
 (optional)_ZTIN5draco42MeshPredictionSchemeGeometricNormalEncoderIiNS_37PredictionSchemeWrapEncodingTransformIiiEENS_24MeshPredictionSchemeDataINS_24MeshAttributeCornerTableEEEEE@Base 1.4.3+dfsg
 (optional)_ZTIN5draco42MeshPredictionSchemeGeometricNormalEncoderIiNS_62PredictionSchemeNormalOctahedronCanonicalizedEncodingTransformIiEENS_24MeshPredictionSchemeDataINS_11CornerTableEEEEE@Base 1.4.3+dfsg
 (optional)_ZTIN5draco42MeshPredictionSchemeGeometricNormalEncoderIiNS_62PredictionSchemeNormalOctahedronCanonicalizedEncodingTransformIiEENS_24MeshPredictionSchemeDataINS_24MeshAttributeCornerTableEEEEE@Base 1.4.3+dfsg
 (optional)_ZTIN5draco44MeshPredictionSchemeTexCoordsPortableDecoderIiNS_37PredictionSchemeWrapDecodingTransformIiiEENS_24MeshPredictionSchemeDataINS_11CornerTableEEEEE@Base 1.4.3+dfsg
 (optional)_ZTIN5draco44MeshPredictionSchemeTexCoordsPortableDecoderIiNS_37PredictionSchemeWrapDecodingTransformIiiEENS_24MeshPredictionSchemeDataINS_24MeshAttributeCornerTableEEEEE@Base 1.4.3+dfsg
 (optional)_ZTIN5draco44MeshPredictionSchemeTexCoordsPortableEncoderIiNS_37PredictionSchemeWrapEncodingTransformIiiEENS_24MeshPredictionSchemeDataINS_11CornerTableEEEEE@Base 1.4.3+dfsg
 (optional)_ZTIN5draco44MeshPredictionSchemeTexCoordsPortableEncoderIiNS_37PredictionSchemeWrapEncodingTransformIiiEENS_24MeshPredictionSchemeDataINS_24MeshAttributeCornerTableEEEEE@Base 1.4.3+dfsg
 (optional)_ZTIN5draco44MeshPredictionSchemeTexCoordsPortableEncoderIiNS_62PredictionSchemeNormalOctahedronCanonicalizedEncodingTransformIiEENS_24MeshPredictionSchemeDataINS_11CornerTableEEEEE@Base 1.4.3+dfsg
 (optional)_ZTIN5draco44MeshPredictionSchemeTexCoordsPortableEncoderIiNS_62PredictionSchemeNormalOctahedronCanonicalizedEncodingTransformIiEENS_24MeshPredictionSchemeDataINS_24MeshAttributeCornerTableEEEEE@Base 1.4.3+dfsg
 (optional)_ZTIN5draco48MeshPredictionSchemeGeometricNormalPredictorAreaIiNS_37PredictionSchemeWrapDecodingTransformIiiEENS_24MeshPredictionSchemeDataINS_11CornerTableEEEEE@Base 1.4.3+dfsg
 (optional)_ZTIN5draco48MeshPredictionSchemeGeometricNormalPredictorAreaIiNS_37PredictionSchemeWrapDecodingTransformIiiEENS_24MeshPredictionSchemeDataINS_24MeshAttributeCornerTableEEEEE@Base 1.4.3+dfsg
 (optional)_ZTIN5draco48MeshPredictionSchemeGeometricNormalPredictorAreaIiNS_37PredictionSchemeWrapEncodingTransformIiiEENS_24MeshPredictionSchemeDataINS_11CornerTableEEEEE@Base 1.4.3+dfsg
 (optional)_ZTIN5draco48MeshPredictionSchemeGeometricNormalPredictorAreaIiNS_37PredictionSchemeWrapEncodingTransformIiiEENS_24MeshPredictionSchemeDataINS_24MeshAttributeCornerTableEEEEE@Base 1.4.3+dfsg
 (optional)_ZTIN5draco48MeshPredictionSchemeGeometricNormalPredictorAreaIiNS_62PredictionSchemeNormalOctahedronCanonicalizedDecodingTransformIiEENS_24MeshPredictionSchemeDataINS_11CornerTableEEEEE@Base 1.4.3+dfsg
 (optional)_ZTIN5draco48MeshPredictionSchemeGeometricNormalPredictorAreaIiNS_62PredictionSchemeNormalOctahedronCanonicalizedDecodingTransformIiEENS_24MeshPredictionSchemeDataINS_24MeshAttributeCornerTableEEEEE@Base 1.4.3+dfsg
 (optional)_ZTIN5draco48MeshPredictionSchemeGeometricNormalPredictorAreaIiNS_62PredictionSchemeNormalOctahedronCanonicalizedEncodingTransformIiEENS_24MeshPredictionSchemeDataINS_11CornerTableEEEEE@Base 1.4.3+dfsg
 (optional)_ZTIN5draco48MeshPredictionSchemeGeometricNormalPredictorAreaIiNS_62PredictionSchemeNormalOctahedronCanonicalizedEncodingTransformIiEENS_24MeshPredictionSchemeDataINS_24MeshAttributeCornerTableEEEEE@Base 1.4.3+dfsg
 _ZTIN5draco48MeshPredictionSchemeGeometricNormalPredictorBaseIiNS_37PredictionSchemeWrapDecodingTransformIiiEENS_24MeshPredictionSchemeDataINS_11CornerTableEEEEE@Base 1.4.3+dfsg
 _ZTIN5draco48MeshPredictionSchemeGeometricNormalPredictorBaseIiNS_37PredictionSchemeWrapDecodingTransformIiiEENS_24MeshPredictionSchemeDataINS_24MeshAttributeCornerTableEEEEE@Base 1.4.3+dfsg
 _ZTIN5draco48MeshPredictionSchemeGeometricNormalPredictorBaseIiNS_37PredictionSchemeWrapEncodingTransformIiiEENS_24MeshPredictionSchemeDataINS_11CornerTableEEEEE@Base 1.4.3+dfsg
 _ZTIN5draco48MeshPredictionSchemeGeometricNormalPredictorBaseIiNS_37PredictionSchemeWrapEncodingTransformIiiEENS_24MeshPredictionSchemeDataINS_24MeshAttributeCornerTableEEEEE@Base 1.4.3+dfsg
 _ZTIN5draco48MeshPredictionSchemeGeometricNormalPredictorBaseIiNS_62PredictionSchemeNormalOctahedronCanonicalizedDecodingTransformIiEENS_24MeshPredictionSchemeDataINS_11CornerTableEEEEE@Base 1.4.3+dfsg
 _ZTIN5draco48MeshPredictionSchemeGeometricNormalPredictorBaseIiNS_62PredictionSchemeNormalOctahedronCanonicalizedDecodingTransformIiEENS_24MeshPredictionSchemeDataINS_24MeshAttributeCornerTableEEEEE@Base 1.4.3+dfsg
 _ZTIN5draco48MeshPredictionSchemeGeometricNormalPredictorBaseIiNS_62PredictionSchemeNormalOctahedronCanonicalizedEncodingTransformIiEENS_24MeshPredictionSchemeDataINS_11CornerTableEEEEE@Base 1.4.3+dfsg
 _ZTIN5draco48MeshPredictionSchemeGeometricNormalPredictorBaseIiNS_62PredictionSchemeNormalOctahedronCanonicalizedEncodingTransformIiEENS_24MeshPredictionSchemeDataINS_24MeshAttributeCornerTableEEEEE@Base 1.4.3+dfsg
 (optional)_ZTIN5draco4MeshE@Base 1.4.3+dfsg
 (optional)_ZTIN5draco56MeshPredictionSchemeConstrainedMultiParallelogramDecoderIiNS_37PredictionSchemeWrapDecodingTransformIiiEENS_24MeshPredictionSchemeDataINS_11CornerTableEEEEE@Base 1.4.3+dfsg
 (optional)_ZTIN5draco56MeshPredictionSchemeConstrainedMultiParallelogramDecoderIiNS_37PredictionSchemeWrapDecodingTransformIiiEENS_24MeshPredictionSchemeDataINS_24MeshAttributeCornerTableEEEEE@Base 1.4.3+dfsg
 (optional)_ZTIN5draco56MeshPredictionSchemeConstrainedMultiParallelogramEncoderIiNS_37PredictionSchemeWrapEncodingTransformIiiEENS_24MeshPredictionSchemeDataINS_11CornerTableEEEEE@Base 1.4.3+dfsg
 (optional)_ZTIN5draco56MeshPredictionSchemeConstrainedMultiParallelogramEncoderIiNS_37PredictionSchemeWrapEncodingTransformIiiEENS_24MeshPredictionSchemeDataINS_24MeshAttributeCornerTableEEEEE@Base 1.4.3+dfsg
 (optional)_ZTIN5draco56MeshPredictionSchemeConstrainedMultiParallelogramEncoderIiNS_62PredictionSchemeNormalOctahedronCanonicalizedEncodingTransformIiEENS_24MeshPredictionSchemeDataINS_11CornerTableEEEEE@Base 1.4.3+dfsg
 (optional)_ZTIN5draco56MeshPredictionSchemeConstrainedMultiParallelogramEncoderIiNS_62PredictionSchemeNormalOctahedronCanonicalizedEncodingTransformIiEENS_24MeshPredictionSchemeDataINS_24MeshAttributeCornerTableEEEEE@Base 1.4.3+dfsg
 _ZTIN5draco7EncoderE@Base 1.4.3+dfsg
 _ZTIZN5draco17PlyPropertyReaderIfEC4EPKNS_11PlyPropertyEEUliE0_@Base 1.4.3+dfsg
 _ZTIZN5draco17PlyPropertyReaderIfEC4EPKNS_11PlyPropertyEEUliE1_@Base 1.4.3+dfsg
 _ZTIZN5draco17PlyPropertyReaderIfEC4EPKNS_11PlyPropertyEEUliE2_@Base 1.4.3+dfsg
 _ZTIZN5draco17PlyPropertyReaderIfEC4EPKNS_11PlyPropertyEEUliE3_@Base 1.4.3+dfsg
 _ZTIZN5draco17PlyPropertyReaderIfEC4EPKNS_11PlyPropertyEEUliE4_@Base 1.4.3+dfsg
 _ZTIZN5draco17PlyPropertyReaderIfEC4EPKNS_11PlyPropertyEEUliE5_@Base 1.4.3+dfsg
 _ZTIZN5draco17PlyPropertyReaderIfEC4EPKNS_11PlyPropertyEEUliE6_@Base 1.4.3+dfsg
 _ZTIZN5draco17PlyPropertyReaderIfEC4EPKNS_11PlyPropertyEEUliE_@Base 1.4.3+dfsg
 _ZTIZN5draco17PlyPropertyReaderIhEC4EPKNS_11PlyPropertyEEUliE0_@Base 1.4.3+dfsg
 _ZTIZN5draco17PlyPropertyReaderIhEC4EPKNS_11PlyPropertyEEUliE1_@Base 1.4.3+dfsg
 _ZTIZN5draco17PlyPropertyReaderIhEC4EPKNS_11PlyPropertyEEUliE2_@Base 1.4.3+dfsg
 _ZTIZN5draco17PlyPropertyReaderIhEC4EPKNS_11PlyPropertyEEUliE3_@Base 1.4.3+dfsg
 _ZTIZN5draco17PlyPropertyReaderIhEC4EPKNS_11PlyPropertyEEUliE4_@Base 1.4.3+dfsg
 _ZTIZN5draco17PlyPropertyReaderIhEC4EPKNS_11PlyPropertyEEUliE5_@Base 1.4.3+dfsg
 _ZTIZN5draco17PlyPropertyReaderIhEC4EPKNS_11PlyPropertyEEUliE6_@Base 1.4.3+dfsg
 _ZTIZN5draco17PlyPropertyReaderIhEC4EPKNS_11PlyPropertyEEUliE_@Base 1.4.3+dfsg
 _ZTIZN5draco17PlyPropertyReaderIiEC4EPKNS_11PlyPropertyEEUliE0_@Base 1.4.3+dfsg
 _ZTIZN5draco17PlyPropertyReaderIiEC4EPKNS_11PlyPropertyEEUliE1_@Base 1.4.3+dfsg
 _ZTIZN5draco17PlyPropertyReaderIiEC4EPKNS_11PlyPropertyEEUliE2_@Base 1.4.3+dfsg
 _ZTIZN5draco17PlyPropertyReaderIiEC4EPKNS_11PlyPropertyEEUliE3_@Base 1.4.3+dfsg
 _ZTIZN5draco17PlyPropertyReaderIiEC4EPKNS_11PlyPropertyEEUliE4_@Base 1.4.3+dfsg
 _ZTIZN5draco17PlyPropertyReaderIiEC4EPKNS_11PlyPropertyEEUliE5_@Base 1.4.3+dfsg
 _ZTIZN5draco17PlyPropertyReaderIiEC4EPKNS_11PlyPropertyEEUliE6_@Base 1.4.3+dfsg
 _ZTIZN5draco17PlyPropertyReaderIiEC4EPKNS_11PlyPropertyEEUliE_@Base 1.4.3+dfsg
 _ZTIZN5draco17PlyPropertyReaderIjEC4EPKNS_11PlyPropertyEEUliE0_@Base 1.4.3+dfsg
 _ZTIZN5draco17PlyPropertyReaderIjEC4EPKNS_11PlyPropertyEEUliE1_@Base 1.4.3+dfsg
 _ZTIZN5draco17PlyPropertyReaderIjEC4EPKNS_11PlyPropertyEEUliE2_@Base 1.4.3+dfsg
 _ZTIZN5draco17PlyPropertyReaderIjEC4EPKNS_11PlyPropertyEEUliE3_@Base 1.4.3+dfsg
 _ZTIZN5draco17PlyPropertyReaderIjEC4EPKNS_11PlyPropertyEEUliE4_@Base 1.4.3+dfsg
 _ZTIZN5draco17PlyPropertyReaderIjEC4EPKNS_11PlyPropertyEEUliE5_@Base 1.4.3+dfsg
 _ZTIZN5draco17PlyPropertyReaderIjEC4EPKNS_11PlyPropertyEEUliE6_@Base 1.4.3+dfsg
 _ZTIZN5draco17PlyPropertyReaderIjEC4EPKNS_11PlyPropertyEEUliE_@Base 1.4.3+dfsg
 _ZTIZN5draco17PlyPropertyWriterIdEC4EPNS_11PlyPropertyEEUldE0_@Base 1.4.3+dfsg
 _ZTIZN5draco17PlyPropertyWriterIdEC4EPNS_11PlyPropertyEEUldE1_@Base 1.4.3+dfsg
 _ZTIZN5draco17PlyPropertyWriterIdEC4EPNS_11PlyPropertyEEUldE2_@Base 1.4.3+dfsg
 _ZTIZN5draco17PlyPropertyWriterIdEC4EPNS_11PlyPropertyEEUldE3_@Base 1.4.3+dfsg
 _ZTIZN5draco17PlyPropertyWriterIdEC4EPNS_11PlyPropertyEEUldE4_@Base 1.4.3+dfsg
 _ZTIZN5draco17PlyPropertyWriterIdEC4EPNS_11PlyPropertyEEUldE5_@Base 1.4.3+dfsg
 _ZTIZN5draco17PlyPropertyWriterIdEC4EPNS_11PlyPropertyEEUldE6_@Base 1.4.3+dfsg
 _ZTIZN5draco17PlyPropertyWriterIdEC4EPNS_11PlyPropertyEEUldE_@Base 1.4.3+dfsg
 _ZTSN5draco10PointCloudE@Base 1.4.3+dfsg
 _ZTSN5draco11EncoderBaseINS_18EncoderOptionsBaseINS_17GeometryAttribute4TypeEEEEE@Base 1.4.3+dfsg
 _ZTSN5draco11EncoderBaseINS_18EncoderOptionsBaseIiEEEE@Base 1.4.3+dfsg
 _ZTSN5draco11MeshDecoderE@Base 1.4.3+dfsg
 _ZTSN5draco11MeshEncoderE@Base 1.4.3+dfsg
 _ZTSN5draco13ExpertEncoderE@Base 1.4.3+dfsg
 _ZTSN5draco13TraverserBaseINS_11CornerTableENS_36MeshAttributeIndicesEncodingObserverIS1_EEEE@Base 1.4.3+dfsg
 _ZTSN5draco13TraverserBaseINS_24MeshAttributeCornerTableENS_36MeshAttributeIndicesEncodingObserverIS1_EEEE@Base 1.4.3+dfsg
 _ZTSN5draco15LinearSequencerE@Base 1.4.3+dfsg
 _ZTSN5draco15PointsSequencerE@Base 1.4.3+dfsg
 _ZTSN5draco15StdioFileReaderE@Base 1.4.3+dfsg
 _ZTSN5draco15StdioFileWriterE@Base 1.4.3+dfsg
 _ZTSN5draco17AttributesDecoderE@Base 1.4.3+dfsg
 _ZTSN5draco17AttributesEncoderE@Base 1.4.3+dfsg
 _ZTSN5draco17KeyframeAnimationE@Base 1.4.3+dfsg
 _ZTSN5draco17PointCloudDecoderE@Base 1.4.3+dfsg
 _ZTSN5draco17PointCloudEncoderE@Base 1.4.3+dfsg
 _ZTSN5draco18AttributeTransformE@Base 1.4.3+dfsg
 _ZTSN5draco19DepthFirstTraverserINS_11CornerTableENS_36MeshAttributeIndicesEncodingObserverIS1_EEEE@Base 1.4.3+dfsg
 _ZTSN5draco19DepthFirstTraverserINS_24MeshAttributeCornerTableENS_36MeshAttributeIndicesEncodingObserverIS1_EEEE@Base 1.4.3+dfsg
 _ZTSN5draco19FileReaderInterfaceE@Base 1.4.3+dfsg
 _ZTSN5draco19FileWriterInterfaceE@Base 1.4.3+dfsg
 _ZTSN5draco21MeshSequentialDecoderE@Base 1.4.3+dfsg
 _ZTSN5draco21MeshSequentialEncoderE@Base 1.4.3+dfsg
 _ZTSN5draco22MeshEdgebreakerDecoderE@Base 1.4.3+dfsg
 _ZTSN5draco22MeshEdgebreakerEncoderE@Base 1.4.3+dfsg
 _ZTSN5draco22MeshTraversalSequencerINS_19DepthFirstTraverserINS_11CornerTableENS_36MeshAttributeIndicesEncodingObserverIS2_EEEEEE@Base 1.4.3+dfsg
 _ZTSN5draco22MeshTraversalSequencerINS_19DepthFirstTraverserINS_24MeshAttributeCornerTableENS_36MeshAttributeIndicesEncodingObserverIS2_EEEEEE@Base 1.4.3+dfsg
 _ZTSN5draco22MeshTraversalSequencerINS_28MaxPredictionDegreeTraverserINS_11CornerTableENS_36MeshAttributeIndicesEncodingObserverIS2_EEEEEE@Base 1.4.3+dfsg
 _ZTSN5draco23KdTreeAttributesDecoderE@Base 1.4.3+dfsg
 _ZTSN5draco23KdTreeAttributesEncoderE@Base 1.4.3+dfsg
 _ZTSN5draco23PointCloudKdTreeDecoderE@Base 1.4.3+dfsg
 _ZTSN5draco23PointCloudKdTreeEncoderE@Base 1.4.3+dfsg
 _ZTSN5draco23PredictionSchemeDecoderIiNS_37PredictionSchemeWrapDecodingTransformIiiEEEE@Base 1.4.3+dfsg
 _ZTSN5draco23PredictionSchemeDecoderIiNS_62PredictionSchemeNormalOctahedronCanonicalizedDecodingTransformIiEEEE@Base 1.4.3+dfsg
 _ZTSN5draco23PredictionSchemeEncoderIiNS_37PredictionSchemeWrapEncodingTransformIiiEEEE@Base 1.4.3+dfsg
 _ZTSN5draco23PredictionSchemeEncoderIiNS_62PredictionSchemeNormalOctahedronCanonicalizedEncodingTransformIiEEEE@Base 1.4.3+dfsg
 _ZTSN5draco24KeyframeAnimationEncoderE@Base 1.4.3+dfsg
 _ZTSN5draco25PredictionSchemeInterfaceE@Base 1.4.3+dfsg
 _ZTSN5draco26AttributesDecoderInterfaceE@Base 1.4.3+dfsg
 _ZTSN5draco26MeshEdgebreakerDecoderImplINS_31MeshEdgebreakerTraversalDecoderEEE@Base 1.4.3+dfsg
 _ZTSN5draco26MeshEdgebreakerDecoderImplINS_38MeshEdgebreakerTraversalValenceDecoderEEE@Base 1.4.3+dfsg
 _ZTSN5draco26MeshEdgebreakerEncoderImplINS_31MeshEdgebreakerTraversalEncoderEEE@Base 1.4.3+dfsg
 _ZTSN5draco26MeshEdgebreakerEncoderImplINS_38MeshEdgebreakerTraversalValenceEncoderEEE@Base 1.4.3+dfsg
 _ZTSN5draco26MeshEdgebreakerEncoderImplINS_41MeshEdgebreakerTraversalPredictiveEncoderEEE@Base 1.4.3+dfsg
 _ZTSN5draco26SequentialAttributeDecoderE@Base 1.4.3+dfsg
 _ZTSN5draco26SequentialAttributeEncoderE@Base 1.4.3+dfsg
 _ZTSN5draco27MeshPredictionSchemeDecoderIiNS_37PredictionSchemeWrapDecodingTransformIiiEENS_24MeshPredictionSchemeDataINS_11CornerTableEEEEE@Base 1.4.3+dfsg
 _ZTSN5draco27MeshPredictionSchemeDecoderIiNS_37PredictionSchemeWrapDecodingTransformIiiEENS_24MeshPredictionSchemeDataINS_24MeshAttributeCornerTableEEEEE@Base 1.4.3+dfsg
 _ZTSN5draco27MeshPredictionSchemeDecoderIiNS_62PredictionSchemeNormalOctahedronCanonicalizedDecodingTransformIiEENS_24MeshPredictionSchemeDataINS_11CornerTableEEEEE@Base 1.4.3+dfsg
 _ZTSN5draco27MeshPredictionSchemeDecoderIiNS_62PredictionSchemeNormalOctahedronCanonicalizedDecodingTransformIiEENS_24MeshPredictionSchemeDataINS_24MeshAttributeCornerTableEEEEE@Base 1.4.3+dfsg
 _ZTSN5draco27MeshPredictionSchemeEncoderIiNS_37PredictionSchemeWrapEncodingTransformIiiEENS_24MeshPredictionSchemeDataINS_11CornerTableEEEEE@Base 1.4.3+dfsg
 _ZTSN5draco27MeshPredictionSchemeEncoderIiNS_37PredictionSchemeWrapEncodingTransformIiiEENS_24MeshPredictionSchemeDataINS_24MeshAttributeCornerTableEEEEE@Base 1.4.3+dfsg
 _ZTSN5draco27MeshPredictionSchemeEncoderIiNS_62PredictionSchemeNormalOctahedronCanonicalizedEncodingTransformIiEENS_24MeshPredictionSchemeDataINS_11CornerTableEEEEE@Base 1.4.3+dfsg
 _ZTSN5draco27MeshPredictionSchemeEncoderIiNS_62PredictionSchemeNormalOctahedronCanonicalizedEncodingTransformIiEENS_24MeshPredictionSchemeDataINS_24MeshAttributeCornerTableEEEEE@Base 1.4.3+dfsg
 _ZTSN5draco27PointCloudSequentialDecoderE@Base 1.4.3+dfsg
 _ZTSN5draco27PointCloudSequentialEncoderE@Base 1.4.3+dfsg
 _ZTSN5draco28AttributeOctahedronTransformE@Base 1.4.3+dfsg
 _ZTSN5draco28MaxPredictionDegreeTraverserINS_11CornerTableENS_36MeshAttributeIndicesEncodingObserverIS1_EEEE@Base 1.4.3+dfsg
 _ZTSN5draco28PredictionSchemeDeltaDecoderIiNS_37PredictionSchemeWrapDecodingTransformIiiEEEE@Base 1.4.3+dfsg
 _ZTSN5draco28PredictionSchemeDeltaDecoderIiNS_62PredictionSchemeNormalOctahedronCanonicalizedDecodingTransformIiEEEE@Base 1.4.3+dfsg
 _ZTSN5draco28PredictionSchemeDeltaEncoderIiNS_37PredictionSchemeWrapEncodingTransformIiiEEEE@Base 1.4.3+dfsg
 _ZTSN5draco28PredictionSchemeDeltaEncoderIiNS_62PredictionSchemeNormalOctahedronCanonicalizedEncodingTransformIiEEEE@Base 1.4.3+dfsg
 _ZTSN5draco30AttributeQuantizationTransformE@Base 1.4.3+dfsg
 _ZTSN5draco32PredictionSchemeDecoderInterfaceE@Base 1.4.3+dfsg
 _ZTSN5draco32PredictionSchemeEncoderInterfaceE@Base 1.4.3+dfsg
 _ZTSN5draco32SequentialNormalAttributeDecoderE@Base 1.4.3+dfsg
 _ZTSN5draco32SequentialNormalAttributeEncoderE@Base 1.4.3+dfsg
 _ZTSN5draco33SequentialIntegerAttributeDecoderE@Base 1.4.3+dfsg
 _ZTSN5draco33SequentialIntegerAttributeEncoderE@Base 1.4.3+dfsg
 _ZTSN5draco35MeshEdgebreakerDecoderImplInterfaceE@Base 1.4.3+dfsg
 _ZTSN5draco35MeshEdgebreakerEncoderImplInterfaceE@Base 1.4.3+dfsg
 _ZTSN5draco37PredictionSchemeTypedDecoderInterfaceIiiEE@Base 1.4.3+dfsg
 _ZTSN5draco37PredictionSchemeTypedEncoderInterfaceIiiEE@Base 1.4.3+dfsg
 _ZTSN5draco37SequentialAttributeDecodersControllerE@Base 1.4.3+dfsg
 _ZTSN5draco37SequentialAttributeEncodersControllerE@Base 1.4.3+dfsg
 _ZTSN5draco38SequentialQuantizationAttributeDecoderE@Base 1.4.3+dfsg
 _ZTSN5draco38SequentialQuantizationAttributeEncoderE@Base 1.4.3+dfsg
 _ZTSN5draco40MeshPredictionSchemeParallelogramDecoderIiNS_37PredictionSchemeWrapDecodingTransformIiiEENS_24MeshPredictionSchemeDataINS_11CornerTableEEEEE@Base 1.4.3+dfsg
 _ZTSN5draco40MeshPredictionSchemeParallelogramDecoderIiNS_37PredictionSchemeWrapDecodingTransformIiiEENS_24MeshPredictionSchemeDataINS_24MeshAttributeCornerTableEEEEE@Base 1.4.3+dfsg
 _ZTSN5draco40MeshPredictionSchemeParallelogramEncoderIiNS_37PredictionSchemeWrapEncodingTransformIiiEENS_24MeshPredictionSchemeDataINS_11CornerTableEEEEE@Base 1.4.3+dfsg
 _ZTSN5draco40MeshPredictionSchemeParallelogramEncoderIiNS_37PredictionSchemeWrapEncodingTransformIiiEENS_24MeshPredictionSchemeDataINS_24MeshAttributeCornerTableEEEEE@Base 1.4.3+dfsg
 _ZTSN5draco40MeshPredictionSchemeParallelogramEncoderIiNS_62PredictionSchemeNormalOctahedronCanonicalizedEncodingTransformIiEENS_24MeshPredictionSchemeDataINS_11CornerTableEEEEE@Base 1.4.3+dfsg
 _ZTSN5draco40MeshPredictionSchemeParallelogramEncoderIiNS_62PredictionSchemeNormalOctahedronCanonicalizedEncodingTransformIiEENS_24MeshPredictionSchemeDataINS_24MeshAttributeCornerTableEEEEE@Base 1.4.3+dfsg
 _ZTSN5draco42MeshPredictionSchemeGeometricNormalDecoderIiNS_37PredictionSchemeWrapDecodingTransformIiiEENS_24MeshPredictionSchemeDataINS_11CornerTableEEEEE@Base 1.4.3+dfsg
 _ZTSN5draco42MeshPredictionSchemeGeometricNormalDecoderIiNS_37PredictionSchemeWrapDecodingTransformIiiEENS_24MeshPredictionSchemeDataINS_24MeshAttributeCornerTableEEEEE@Base 1.4.3+dfsg
 _ZTSN5draco42MeshPredictionSchemeGeometricNormalDecoderIiNS_62PredictionSchemeNormalOctahedronCanonicalizedDecodingTransformIiEENS_24MeshPredictionSchemeDataINS_11CornerTableEEEEE@Base 1.4.3+dfsg
 _ZTSN5draco42MeshPredictionSchemeGeometricNormalDecoderIiNS_62PredictionSchemeNormalOctahedronCanonicalizedDecodingTransformIiEENS_24MeshPredictionSchemeDataINS_24MeshAttributeCornerTableEEEEE@Base 1.4.3+dfsg
 _ZTSN5draco42MeshPredictionSchemeGeometricNormalEncoderIiNS_37PredictionSchemeWrapEncodingTransformIiiEENS_24MeshPredictionSchemeDataINS_11CornerTableEEEEE@Base 1.4.3+dfsg
 _ZTSN5draco42MeshPredictionSchemeGeometricNormalEncoderIiNS_37PredictionSchemeWrapEncodingTransformIiiEENS_24MeshPredictionSchemeDataINS_24MeshAttributeCornerTableEEEEE@Base 1.4.3+dfsg
 _ZTSN5draco42MeshPredictionSchemeGeometricNormalEncoderIiNS_62PredictionSchemeNormalOctahedronCanonicalizedEncodingTransformIiEENS_24MeshPredictionSchemeDataINS_11CornerTableEEEEE@Base 1.4.3+dfsg
 _ZTSN5draco42MeshPredictionSchemeGeometricNormalEncoderIiNS_62PredictionSchemeNormalOctahedronCanonicalizedEncodingTransformIiEENS_24MeshPredictionSchemeDataINS_24MeshAttributeCornerTableEEEEE@Base 1.4.3+dfsg
 _ZTSN5draco44MeshPredictionSchemeTexCoordsPortableDecoderIiNS_37PredictionSchemeWrapDecodingTransformIiiEENS_24MeshPredictionSchemeDataINS_11CornerTableEEEEE@Base 1.4.3+dfsg
 _ZTSN5draco44MeshPredictionSchemeTexCoordsPortableDecoderIiNS_37PredictionSchemeWrapDecodingTransformIiiEENS_24MeshPredictionSchemeDataINS_24MeshAttributeCornerTableEEEEE@Base 1.4.3+dfsg
 _ZTSN5draco44MeshPredictionSchemeTexCoordsPortableEncoderIiNS_37PredictionSchemeWrapEncodingTransformIiiEENS_24MeshPredictionSchemeDataINS_11CornerTableEEEEE@Base 1.4.3+dfsg
 _ZTSN5draco44MeshPredictionSchemeTexCoordsPortableEncoderIiNS_37PredictionSchemeWrapEncodingTransformIiiEENS_24MeshPredictionSchemeDataINS_24MeshAttributeCornerTableEEEEE@Base 1.4.3+dfsg
 _ZTSN5draco44MeshPredictionSchemeTexCoordsPortableEncoderIiNS_62PredictionSchemeNormalOctahedronCanonicalizedEncodingTransformIiEENS_24MeshPredictionSchemeDataINS_11CornerTableEEEEE@Base 1.4.3+dfsg
 _ZTSN5draco44MeshPredictionSchemeTexCoordsPortableEncoderIiNS_62PredictionSchemeNormalOctahedronCanonicalizedEncodingTransformIiEENS_24MeshPredictionSchemeDataINS_24MeshAttributeCornerTableEEEEE@Base 1.4.3+dfsg
 _ZTSN5draco48MeshPredictionSchemeGeometricNormalPredictorAreaIiNS_37PredictionSchemeWrapDecodingTransformIiiEENS_24MeshPredictionSchemeDataINS_11CornerTableEEEEE@Base 1.4.3+dfsg
 _ZTSN5draco48MeshPredictionSchemeGeometricNormalPredictorAreaIiNS_37PredictionSchemeWrapDecodingTransformIiiEENS_24MeshPredictionSchemeDataINS_24MeshAttributeCornerTableEEEEE@Base 1.4.3+dfsg
 _ZTSN5draco48MeshPredictionSchemeGeometricNormalPredictorAreaIiNS_37PredictionSchemeWrapEncodingTransformIiiEENS_24MeshPredictionSchemeDataINS_11CornerTableEEEEE@Base 1.4.3+dfsg
 _ZTSN5draco48MeshPredictionSchemeGeometricNormalPredictorAreaIiNS_37PredictionSchemeWrapEncodingTransformIiiEENS_24MeshPredictionSchemeDataINS_24MeshAttributeCornerTableEEEEE@Base 1.4.3+dfsg
 _ZTSN5draco48MeshPredictionSchemeGeometricNormalPredictorAreaIiNS_62PredictionSchemeNormalOctahedronCanonicalizedDecodingTransformIiEENS_24MeshPredictionSchemeDataINS_11CornerTableEEEEE@Base 1.4.3+dfsg
 _ZTSN5draco48MeshPredictionSchemeGeometricNormalPredictorAreaIiNS_62PredictionSchemeNormalOctahedronCanonicalizedDecodingTransformIiEENS_24MeshPredictionSchemeDataINS_24MeshAttributeCornerTableEEEEE@Base 1.4.3+dfsg
 _ZTSN5draco48MeshPredictionSchemeGeometricNormalPredictorAreaIiNS_62PredictionSchemeNormalOctahedronCanonicalizedEncodingTransformIiEENS_24MeshPredictionSchemeDataINS_11CornerTableEEEEE@Base 1.4.3+dfsg
 _ZTSN5draco48MeshPredictionSchemeGeometricNormalPredictorAreaIiNS_62PredictionSchemeNormalOctahedronCanonicalizedEncodingTransformIiEENS_24MeshPredictionSchemeDataINS_24MeshAttributeCornerTableEEEEE@Base 1.4.3+dfsg
 _ZTSN5draco48MeshPredictionSchemeGeometricNormalPredictorBaseIiNS_37PredictionSchemeWrapDecodingTransformIiiEENS_24MeshPredictionSchemeDataINS_11CornerTableEEEEE@Base 1.4.3+dfsg
 _ZTSN5draco48MeshPredictionSchemeGeometricNormalPredictorBaseIiNS_37PredictionSchemeWrapDecodingTransformIiiEENS_24MeshPredictionSchemeDataINS_24MeshAttributeCornerTableEEEEE@Base 1.4.3+dfsg
 _ZTSN5draco48MeshPredictionSchemeGeometricNormalPredictorBaseIiNS_37PredictionSchemeWrapEncodingTransformIiiEENS_24MeshPredictionSchemeDataINS_11CornerTableEEEEE@Base 1.4.3+dfsg
 _ZTSN5draco48MeshPredictionSchemeGeometricNormalPredictorBaseIiNS_37PredictionSchemeWrapEncodingTransformIiiEENS_24MeshPredictionSchemeDataINS_24MeshAttributeCornerTableEEEEE@Base 1.4.3+dfsg
 _ZTSN5draco48MeshPredictionSchemeGeometricNormalPredictorBaseIiNS_62PredictionSchemeNormalOctahedronCanonicalizedDecodingTransformIiEENS_24MeshPredictionSchemeDataINS_11CornerTableEEEEE@Base 1.4.3+dfsg
 _ZTSN5draco48MeshPredictionSchemeGeometricNormalPredictorBaseIiNS_62PredictionSchemeNormalOctahedronCanonicalizedDecodingTransformIiEENS_24MeshPredictionSchemeDataINS_24MeshAttributeCornerTableEEEEE@Base 1.4.3+dfsg
 _ZTSN5draco48MeshPredictionSchemeGeometricNormalPredictorBaseIiNS_62PredictionSchemeNormalOctahedronCanonicalizedEncodingTransformIiEENS_24MeshPredictionSchemeDataINS_11CornerTableEEEEE@Base 1.4.3+dfsg
 _ZTSN5draco48MeshPredictionSchemeGeometricNormalPredictorBaseIiNS_62PredictionSchemeNormalOctahedronCanonicalizedEncodingTransformIiEENS_24MeshPredictionSchemeDataINS_24MeshAttributeCornerTableEEEEE@Base 1.4.3+dfsg
 _ZTSN5draco4MeshE@Base 1.4.3+dfsg
 _ZTSN5draco56MeshPredictionSchemeConstrainedMultiParallelogramDecoderIiNS_37PredictionSchemeWrapDecodingTransformIiiEENS_24MeshPredictionSchemeDataINS_11CornerTableEEEEE@Base 1.4.3+dfsg
 _ZTSN5draco56MeshPredictionSchemeConstrainedMultiParallelogramDecoderIiNS_37PredictionSchemeWrapDecodingTransformIiiEENS_24MeshPredictionSchemeDataINS_24MeshAttributeCornerTableEEEEE@Base 1.4.3+dfsg
 _ZTSN5draco56MeshPredictionSchemeConstrainedMultiParallelogramEncoderIiNS_37PredictionSchemeWrapEncodingTransformIiiEENS_24MeshPredictionSchemeDataINS_11CornerTableEEEEE@Base 1.4.3+dfsg
 _ZTSN5draco56MeshPredictionSchemeConstrainedMultiParallelogramEncoderIiNS_37PredictionSchemeWrapEncodingTransformIiiEENS_24MeshPredictionSchemeDataINS_24MeshAttributeCornerTableEEEEE@Base 1.4.3+dfsg
 _ZTSN5draco56MeshPredictionSchemeConstrainedMultiParallelogramEncoderIiNS_62PredictionSchemeNormalOctahedronCanonicalizedEncodingTransformIiEENS_24MeshPredictionSchemeDataINS_11CornerTableEEEEE@Base 1.4.3+dfsg
 _ZTSN5draco56MeshPredictionSchemeConstrainedMultiParallelogramEncoderIiNS_62PredictionSchemeNormalOctahedronCanonicalizedEncodingTransformIiEENS_24MeshPredictionSchemeDataINS_24MeshAttributeCornerTableEEEEE@Base 1.4.3+dfsg
 _ZTSN5draco7EncoderE@Base 1.4.3+dfsg
 _ZTSZN5draco17PlyPropertyReaderIfEC4EPKNS_11PlyPropertyEEUliE0_@Base 1.4.3+dfsg
 _ZTSZN5draco17PlyPropertyReaderIfEC4EPKNS_11PlyPropertyEEUliE1_@Base 1.4.3+dfsg
 _ZTSZN5draco17PlyPropertyReaderIfEC4EPKNS_11PlyPropertyEEUliE2_@Base 1.4.3+dfsg
 _ZTSZN5draco17PlyPropertyReaderIfEC4EPKNS_11PlyPropertyEEUliE3_@Base 1.4.3+dfsg
 _ZTSZN5draco17PlyPropertyReaderIfEC4EPKNS_11PlyPropertyEEUliE4_@Base 1.4.3+dfsg
 _ZTSZN5draco17PlyPropertyReaderIfEC4EPKNS_11PlyPropertyEEUliE5_@Base 1.4.3+dfsg
 _ZTSZN5draco17PlyPropertyReaderIfEC4EPKNS_11PlyPropertyEEUliE6_@Base 1.4.3+dfsg
 _ZTSZN5draco17PlyPropertyReaderIfEC4EPKNS_11PlyPropertyEEUliE_@Base 1.4.3+dfsg
 _ZTSZN5draco17PlyPropertyReaderIhEC4EPKNS_11PlyPropertyEEUliE0_@Base 1.4.3+dfsg
 _ZTSZN5draco17PlyPropertyReaderIhEC4EPKNS_11PlyPropertyEEUliE1_@Base 1.4.3+dfsg
 _ZTSZN5draco17PlyPropertyReaderIhEC4EPKNS_11PlyPropertyEEUliE2_@Base 1.4.3+dfsg
 _ZTSZN5draco17PlyPropertyReaderIhEC4EPKNS_11PlyPropertyEEUliE3_@Base 1.4.3+dfsg
 _ZTSZN5draco17PlyPropertyReaderIhEC4EPKNS_11PlyPropertyEEUliE4_@Base 1.4.3+dfsg
 _ZTSZN5draco17PlyPropertyReaderIhEC4EPKNS_11PlyPropertyEEUliE5_@Base 1.4.3+dfsg
 _ZTSZN5draco17PlyPropertyReaderIhEC4EPKNS_11PlyPropertyEEUliE6_@Base 1.4.3+dfsg
 _ZTSZN5draco17PlyPropertyReaderIhEC4EPKNS_11PlyPropertyEEUliE_@Base 1.4.3+dfsg
 _ZTSZN5draco17PlyPropertyReaderIiEC4EPKNS_11PlyPropertyEEUliE0_@Base 1.4.3+dfsg
 _ZTSZN5draco17PlyPropertyReaderIiEC4EPKNS_11PlyPropertyEEUliE1_@Base 1.4.3+dfsg
 _ZTSZN5draco17PlyPropertyReaderIiEC4EPKNS_11PlyPropertyEEUliE2_@Base 1.4.3+dfsg
 _ZTSZN5draco17PlyPropertyReaderIiEC4EPKNS_11PlyPropertyEEUliE3_@Base 1.4.3+dfsg
 _ZTSZN5draco17PlyPropertyReaderIiEC4EPKNS_11PlyPropertyEEUliE4_@Base 1.4.3+dfsg
 _ZTSZN5draco17PlyPropertyReaderIiEC4EPKNS_11PlyPropertyEEUliE5_@Base 1.4.3+dfsg
 _ZTSZN5draco17PlyPropertyReaderIiEC4EPKNS_11PlyPropertyEEUliE6_@Base 1.4.3+dfsg
 _ZTSZN5draco17PlyPropertyReaderIiEC4EPKNS_11PlyPropertyEEUliE_@Base 1.4.3+dfsg
 _ZTSZN5draco17PlyPropertyReaderIjEC4EPKNS_11PlyPropertyEEUliE0_@Base 1.4.3+dfsg
 _ZTSZN5draco17PlyPropertyReaderIjEC4EPKNS_11PlyPropertyEEUliE1_@Base 1.4.3+dfsg
 _ZTSZN5draco17PlyPropertyReaderIjEC4EPKNS_11PlyPropertyEEUliE2_@Base 1.4.3+dfsg
 _ZTSZN5draco17PlyPropertyReaderIjEC4EPKNS_11PlyPropertyEEUliE3_@Base 1.4.3+dfsg
 _ZTSZN5draco17PlyPropertyReaderIjEC4EPKNS_11PlyPropertyEEUliE4_@Base 1.4.3+dfsg
 _ZTSZN5draco17PlyPropertyReaderIjEC4EPKNS_11PlyPropertyEEUliE5_@Base 1.4.3+dfsg
 _ZTSZN5draco17PlyPropertyReaderIjEC4EPKNS_11PlyPropertyEEUliE6_@Base 1.4.3+dfsg
 _ZTSZN5draco17PlyPropertyReaderIjEC4EPKNS_11PlyPropertyEEUliE_@Base 1.4.3+dfsg
 _ZTSZN5draco17PlyPropertyWriterIdEC4EPNS_11PlyPropertyEEUldE0_@Base 1.4.3+dfsg
 _ZTSZN5draco17PlyPropertyWriterIdEC4EPNS_11PlyPropertyEEUldE1_@Base 1.4.3+dfsg
 _ZTSZN5draco17PlyPropertyWriterIdEC4EPNS_11PlyPropertyEEUldE2_@Base 1.4.3+dfsg
 _ZTSZN5draco17PlyPropertyWriterIdEC4EPNS_11PlyPropertyEEUldE3_@Base 1.4.3+dfsg
 _ZTSZN5draco17PlyPropertyWriterIdEC4EPNS_11PlyPropertyEEUldE4_@Base 1.4.3+dfsg
 _ZTSZN5draco17PlyPropertyWriterIdEC4EPNS_11PlyPropertyEEUldE5_@Base 1.4.3+dfsg
 _ZTSZN5draco17PlyPropertyWriterIdEC4EPNS_11PlyPropertyEEUldE6_@Base 1.4.3+dfsg
 _ZTSZN5draco17PlyPropertyWriterIdEC4EPNS_11PlyPropertyEEUldE_@Base 1.4.3+dfsg
 _ZTVN5draco10PointCloudE@Base 1.4.3+dfsg
 (optional)_ZTVN5draco11EncoderBaseINS_18EncoderOptionsBaseINS_17GeometryAttribute4TypeEEEEE@Base 1.4.3+dfsg
 (optional)_ZTVN5draco11EncoderBaseINS_18EncoderOptionsBaseIiEEEE@Base 1.4.3+dfsg
 _ZTVN5draco11MeshDecoderE@Base 1.4.3+dfsg
 _ZTVN5draco11MeshEncoderE@Base 1.4.3+dfsg
 (optional)_ZTVN5draco13ExpertEncoderE@Base 1.4.3+dfsg
 (optional)_ZTVN5draco13TraverserBaseINS_11CornerTableENS_36MeshAttributeIndicesEncodingObserverIS1_EEEE@Base 1.4.3+dfsg
 (optional)_ZTVN5draco13TraverserBaseINS_24MeshAttributeCornerTableENS_36MeshAttributeIndicesEncodingObserverIS1_EEEE@Base 1.4.3+dfsg
 (optional)_ZTVN5draco15LinearSequencerE@Base 1.4.3+dfsg
 _ZTVN5draco15StdioFileReaderE@Base 1.4.3+dfsg
 _ZTVN5draco15StdioFileWriterE@Base 1.4.3+dfsg
 _ZTVN5draco17AttributesDecoderE@Base 1.4.3+dfsg
 _ZTVN5draco17AttributesEncoderE@Base 1.4.3+dfsg
 (optional)_ZTVN5draco17KeyframeAnimationE@Base 1.4.3+dfsg
 _ZTVN5draco17PointCloudDecoderE@Base 1.4.3+dfsg
 _ZTVN5draco17PointCloudEncoderE@Base 1.4.3+dfsg
 _ZTVN5draco18AttributeTransformE@Base 1.4.3+dfsg
 (optional)_ZTVN5draco19DepthFirstTraverserINS_11CornerTableENS_36MeshAttributeIndicesEncodingObserverIS1_EEEE@Base 1.4.3+dfsg
 (optional)_ZTVN5draco19DepthFirstTraverserINS_24MeshAttributeCornerTableENS_36MeshAttributeIndicesEncodingObserverIS1_EEEE@Base 1.4.3+dfsg
 _ZTVN5draco21MeshSequentialDecoderE@Base 1.4.3+dfsg
 _ZTVN5draco21MeshSequentialEncoderE@Base 1.4.3+dfsg
 _ZTVN5draco22MeshEdgebreakerDecoderE@Base 1.4.3+dfsg
 _ZTVN5draco22MeshEdgebreakerEncoderE@Base 1.4.3+dfsg
 (optional)_ZTVN5draco22MeshTraversalSequencerINS_19DepthFirstTraverserINS_11CornerTableENS_36MeshAttributeIndicesEncodingObserverIS2_EEEEEE@Base 1.4.3+dfsg
 (optional)_ZTVN5draco22MeshTraversalSequencerINS_19DepthFirstTraverserINS_24MeshAttributeCornerTableENS_36MeshAttributeIndicesEncodingObserverIS2_EEEEEE@Base 1.4.3+dfsg
 (optional)_ZTVN5draco22MeshTraversalSequencerINS_28MaxPredictionDegreeTraverserINS_11CornerTableENS_36MeshAttributeIndicesEncodingObserverIS2_EEEEEE@Base 1.4.3+dfsg
 _ZTVN5draco23KdTreeAttributesDecoderE@Base 1.4.3+dfsg
 _ZTVN5draco23KdTreeAttributesEncoderE@Base 1.4.3+dfsg
 _ZTVN5draco23PointCloudKdTreeDecoderE@Base 1.4.3+dfsg
 _ZTVN5draco23PointCloudKdTreeEncoderE@Base 1.4.3+dfsg
 (optional)_ZTVN5draco23PredictionSchemeDecoderIiNS_37PredictionSchemeWrapDecodingTransformIiiEEEE@Base 1.4.3+dfsg
 (optional)_ZTVN5draco23PredictionSchemeEncoderIiNS_37PredictionSchemeWrapEncodingTransformIiiEEEE@Base 1.4.3+dfsg
 (optional)_ZTVN5draco24KeyframeAnimationEncoderE@Base 1.4.3+dfsg
 _ZTVN5draco26MeshEdgebreakerDecoderImplINS_31MeshEdgebreakerTraversalDecoderEEE@Base 1.4.3+dfsg
 _ZTVN5draco26MeshEdgebreakerDecoderImplINS_38MeshEdgebreakerTraversalValenceDecoderEEE@Base 1.4.3+dfsg
 _ZTVN5draco26MeshEdgebreakerEncoderImplINS_31MeshEdgebreakerTraversalEncoderEEE@Base 1.4.3+dfsg
 _ZTVN5draco26MeshEdgebreakerEncoderImplINS_38MeshEdgebreakerTraversalValenceEncoderEEE@Base 1.4.3+dfsg
 _ZTVN5draco26MeshEdgebreakerEncoderImplINS_41MeshEdgebreakerTraversalPredictiveEncoderEEE@Base 1.4.3+dfsg
 _ZTVN5draco26SequentialAttributeDecoderE@Base 1.4.3+dfsg
 _ZTVN5draco26SequentialAttributeEncoderE@Base 1.4.3+dfsg
 _ZTVN5draco27PointCloudSequentialDecoderE@Base 1.4.3+dfsg
 _ZTVN5draco27PointCloudSequentialEncoderE@Base 1.4.3+dfsg
 _ZTVN5draco28AttributeOctahedronTransformE@Base 1.4.3+dfsg
 (optional)_ZTVN5draco28MaxPredictionDegreeTraverserINS_11CornerTableENS_36MeshAttributeIndicesEncodingObserverIS1_EEEE@Base 1.4.3+dfsg
 (optional)_ZTVN5draco28PredictionSchemeDeltaDecoderIiNS_37PredictionSchemeWrapDecodingTransformIiiEEEE@Base 1.4.3+dfsg
 (optional)_ZTVN5draco28PredictionSchemeDeltaDecoderIiNS_62PredictionSchemeNormalOctahedronCanonicalizedDecodingTransformIiEEEE@Base 1.4.3+dfsg
 (optional)_ZTVN5draco28PredictionSchemeDeltaEncoderIiNS_37PredictionSchemeWrapEncodingTransformIiiEEEE@Base 1.4.3+dfsg
 (optional)_ZTVN5draco28PredictionSchemeDeltaEncoderIiNS_62PredictionSchemeNormalOctahedronCanonicalizedEncodingTransformIiEEEE@Base 1.4.3+dfsg
 _ZTVN5draco30AttributeQuantizationTransformE@Base 1.4.3+dfsg
 _ZTVN5draco32SequentialNormalAttributeDecoderE@Base 1.4.3+dfsg
 _ZTVN5draco32SequentialNormalAttributeEncoderE@Base 1.4.3+dfsg
 _ZTVN5draco33SequentialIntegerAttributeDecoderE@Base 1.4.3+dfsg
 _ZTVN5draco33SequentialIntegerAttributeEncoderE@Base 1.4.3+dfsg
 _ZTVN5draco37SequentialAttributeDecodersControllerE@Base 1.4.3+dfsg
 _ZTVN5draco37SequentialAttributeEncodersControllerE@Base 1.4.3+dfsg
 _ZTVN5draco38SequentialQuantizationAttributeDecoderE@Base 1.4.3+dfsg
 _ZTVN5draco38SequentialQuantizationAttributeEncoderE@Base 1.4.3+dfsg
 (optional)_ZTVN5draco40MeshPredictionSchemeParallelogramDecoderIiNS_37PredictionSchemeWrapDecodingTransformIiiEENS_24MeshPredictionSchemeDataINS_11CornerTableEEEEE@Base 1.4.3+dfsg
 (optional)_ZTVN5draco40MeshPredictionSchemeParallelogramDecoderIiNS_37PredictionSchemeWrapDecodingTransformIiiEENS_24MeshPredictionSchemeDataINS_24MeshAttributeCornerTableEEEEE@Base 1.4.3+dfsg
 (optional)_ZTVN5draco40MeshPredictionSchemeParallelogramEncoderIiNS_37PredictionSchemeWrapEncodingTransformIiiEENS_24MeshPredictionSchemeDataINS_11CornerTableEEEEE@Base 1.4.3+dfsg
 (optional)_ZTVN5draco40MeshPredictionSchemeParallelogramEncoderIiNS_37PredictionSchemeWrapEncodingTransformIiiEENS_24MeshPredictionSchemeDataINS_24MeshAttributeCornerTableEEEEE@Base 1.4.3+dfsg
 (optional)_ZTVN5draco40MeshPredictionSchemeParallelogramEncoderIiNS_62PredictionSchemeNormalOctahedronCanonicalizedEncodingTransformIiEENS_24MeshPredictionSchemeDataINS_11CornerTableEEEEE@Base 1.4.3+dfsg
 (optional)_ZTVN5draco40MeshPredictionSchemeParallelogramEncoderIiNS_62PredictionSchemeNormalOctahedronCanonicalizedEncodingTransformIiEENS_24MeshPredictionSchemeDataINS_24MeshAttributeCornerTableEEEEE@Base 1.4.3+dfsg
 (optional)_ZTVN5draco42MeshPredictionSchemeGeometricNormalDecoderIiNS_37PredictionSchemeWrapDecodingTransformIiiEENS_24MeshPredictionSchemeDataINS_11CornerTableEEEEE@Base 1.4.3+dfsg
 (optional)_ZTVN5draco42MeshPredictionSchemeGeometricNormalDecoderIiNS_37PredictionSchemeWrapDecodingTransformIiiEENS_24MeshPredictionSchemeDataINS_24MeshAttributeCornerTableEEEEE@Base 1.4.3+dfsg
 (optional)_ZTVN5draco42MeshPredictionSchemeGeometricNormalDecoderIiNS_62PredictionSchemeNormalOctahedronCanonicalizedDecodingTransformIiEENS_24MeshPredictionSchemeDataINS_11CornerTableEEEEE@Base 1.4.3+dfsg
 (optional)_ZTVN5draco42MeshPredictionSchemeGeometricNormalDecoderIiNS_62PredictionSchemeNormalOctahedronCanonicalizedDecodingTransformIiEENS_24MeshPredictionSchemeDataINS_24MeshAttributeCornerTableEEEEE@Base 1.4.3+dfsg
 (optional)_ZTVN5draco42MeshPredictionSchemeGeometricNormalEncoderIiNS_37PredictionSchemeWrapEncodingTransformIiiEENS_24MeshPredictionSchemeDataINS_11CornerTableEEEEE@Base 1.4.3+dfsg
 (optional)_ZTVN5draco42MeshPredictionSchemeGeometricNormalEncoderIiNS_37PredictionSchemeWrapEncodingTransformIiiEENS_24MeshPredictionSchemeDataINS_24MeshAttributeCornerTableEEEEE@Base 1.4.3+dfsg
 (optional)_ZTVN5draco42MeshPredictionSchemeGeometricNormalEncoderIiNS_62PredictionSchemeNormalOctahedronCanonicalizedEncodingTransformIiEENS_24MeshPredictionSchemeDataINS_11CornerTableEEEEE@Base 1.4.3+dfsg
 (optional)_ZTVN5draco42MeshPredictionSchemeGeometricNormalEncoderIiNS_62PredictionSchemeNormalOctahedronCanonicalizedEncodingTransformIiEENS_24MeshPredictionSchemeDataINS_24MeshAttributeCornerTableEEEEE@Base 1.4.3+dfsg
 (optional)_ZTVN5draco44MeshPredictionSchemeTexCoordsPortableDecoderIiNS_37PredictionSchemeWrapDecodingTransformIiiEENS_24MeshPredictionSchemeDataINS_11CornerTableEEEEE@Base 1.4.3+dfsg
 (optional)_ZTVN5draco44MeshPredictionSchemeTexCoordsPortableDecoderIiNS_37PredictionSchemeWrapDecodingTransformIiiEENS_24MeshPredictionSchemeDataINS_24MeshAttributeCornerTableEEEEE@Base 1.4.3+dfsg
 (optional)_ZTVN5draco44MeshPredictionSchemeTexCoordsPortableEncoderIiNS_37PredictionSchemeWrapEncodingTransformIiiEENS_24MeshPredictionSchemeDataINS_11CornerTableEEEEE@Base 1.4.3+dfsg
 (optional)_ZTVN5draco44MeshPredictionSchemeTexCoordsPortableEncoderIiNS_37PredictionSchemeWrapEncodingTransformIiiEENS_24MeshPredictionSchemeDataINS_24MeshAttributeCornerTableEEEEE@Base 1.4.3+dfsg
 (optional)_ZTVN5draco44MeshPredictionSchemeTexCoordsPortableEncoderIiNS_62PredictionSchemeNormalOctahedronCanonicalizedEncodingTransformIiEENS_24MeshPredictionSchemeDataINS_11CornerTableEEEEE@Base 1.4.3+dfsg
 (optional)_ZTVN5draco44MeshPredictionSchemeTexCoordsPortableEncoderIiNS_62PredictionSchemeNormalOctahedronCanonicalizedEncodingTransformIiEENS_24MeshPredictionSchemeDataINS_24MeshAttributeCornerTableEEEEE@Base 1.4.3+dfsg
 (optional)_ZTVN5draco48MeshPredictionSchemeGeometricNormalPredictorAreaIiNS_37PredictionSchemeWrapDecodingTransformIiiEENS_24MeshPredictionSchemeDataINS_11CornerTableEEEEE@Base 1.4.3+dfsg
 (optional)_ZTVN5draco48MeshPredictionSchemeGeometricNormalPredictorAreaIiNS_37PredictionSchemeWrapDecodingTransformIiiEENS_24MeshPredictionSchemeDataINS_24MeshAttributeCornerTableEEEEE@Base 1.4.3+dfsg
 (optional)_ZTVN5draco48MeshPredictionSchemeGeometricNormalPredictorAreaIiNS_37PredictionSchemeWrapEncodingTransformIiiEENS_24MeshPredictionSchemeDataINS_11CornerTableEEEEE@Base 1.4.3+dfsg
 (optional)_ZTVN5draco48MeshPredictionSchemeGeometricNormalPredictorAreaIiNS_37PredictionSchemeWrapEncodingTransformIiiEENS_24MeshPredictionSchemeDataINS_24MeshAttributeCornerTableEEEEE@Base 1.4.3+dfsg
 (optional)_ZTVN5draco48MeshPredictionSchemeGeometricNormalPredictorAreaIiNS_62PredictionSchemeNormalOctahedronCanonicalizedDecodingTransformIiEENS_24MeshPredictionSchemeDataINS_11CornerTableEEEEE@Base 1.4.3+dfsg
 (optional)_ZTVN5draco48MeshPredictionSchemeGeometricNormalPredictorAreaIiNS_62PredictionSchemeNormalOctahedronCanonicalizedDecodingTransformIiEENS_24MeshPredictionSchemeDataINS_24MeshAttributeCornerTableEEEEE@Base 1.4.3+dfsg
 (optional)_ZTVN5draco48MeshPredictionSchemeGeometricNormalPredictorAreaIiNS_62PredictionSchemeNormalOctahedronCanonicalizedEncodingTransformIiEENS_24MeshPredictionSchemeDataINS_11CornerTableEEEEE@Base 1.4.3+dfsg
 (optional)_ZTVN5draco48MeshPredictionSchemeGeometricNormalPredictorAreaIiNS_62PredictionSchemeNormalOctahedronCanonicalizedEncodingTransformIiEENS_24MeshPredictionSchemeDataINS_24MeshAttributeCornerTableEEEEE@Base 1.4.3+dfsg
 (optional)_ZTVN5draco4MeshE@Base 1.4.3+dfsg
 (optional)_ZTVN5draco56MeshPredictionSchemeConstrainedMultiParallelogramDecoderIiNS_37PredictionSchemeWrapDecodingTransformIiiEENS_24MeshPredictionSchemeDataINS_11CornerTableEEEEE@Base 1.4.3+dfsg
 (optional)_ZTVN5draco56MeshPredictionSchemeConstrainedMultiParallelogramDecoderIiNS_37PredictionSchemeWrapDecodingTransformIiiEENS_24MeshPredictionSchemeDataINS_24MeshAttributeCornerTableEEEEE@Base 1.4.3+dfsg
 (optional)_ZTVN5draco56MeshPredictionSchemeConstrainedMultiParallelogramEncoderIiNS_37PredictionSchemeWrapEncodingTransformIiiEENS_24MeshPredictionSchemeDataINS_11CornerTableEEEEE@Base 1.4.3+dfsg
 (optional)_ZTVN5draco56MeshPredictionSchemeConstrainedMultiParallelogramEncoderIiNS_37PredictionSchemeWrapEncodingTransformIiiEENS_24MeshPredictionSchemeDataINS_24MeshAttributeCornerTableEEEEE@Base 1.4.3+dfsg
 (optional)_ZTVN5draco56MeshPredictionSchemeConstrainedMultiParallelogramEncoderIiNS_62PredictionSchemeNormalOctahedronCanonicalizedEncodingTransformIiEENS_24MeshPredictionSchemeDataINS_11CornerTableEEEEE@Base 1.4.3+dfsg
 (optional)_ZTVN5draco56MeshPredictionSchemeConstrainedMultiParallelogramEncoderIiNS_62PredictionSchemeNormalOctahedronCanonicalizedEncodingTransformIiEENS_24MeshPredictionSchemeDataINS_24MeshAttributeCornerTableEEEEE@Base 1.4.3+dfsg
 _ZTVN5draco7EncoderE@Base 1.4.3+dfsg
